(dp1
S'negative_words_hashtags'
p2
(lp3
I0
aI0
aI0
aI0
aI0
aI0
aI0
aI0
aI0
aI0
aI0
aI0
aI0
aI0
aI0
aI0
aI0
aI0
aI0
aI0
aI0
aI0
aI0
aI0
aI0
aI0
aI0
aI0
aI0
aI0
aI0
aI0
asS'positive_words_hashtags'
p4
(lp5
I0
aI0
aI0
aI0
aI0
aI0
aI0
aI0
aI0
aI0
aI0
aI0
aI0
aI0
aI0
aI0
aI0
aI0
aI0
aI0
aI0
aI0
aI0
aI0
aI0
aI0
aI0
aI0
aI0
aI0
aI0
aI0
asS'special_punctuation'
p6
(lp7
I0
aI0
aI0
aI0
aI0
aI8
aI6
aI0
aI0
aI4
aI0
aI0
aI0
aI0
aI0
aI2
aI0
aI0
aI0
aI14
aI0
aI0
aI2
aI0
aI0
aI0
aI0
aI6
aI0
aI0
aI4
aI0
asS'uppercase_words'
p8
(lp9
I0
aI0
aI0
aI0
aI0
aI0
aI2
aI0
aI0
aI0
aI0
aI0
aI0
aI0
aI0
aI4
aI0
aI0
aI0
aI1
aI1
aI0
aI0
aI0
aI0
aI0
aI0
aI7
aI0
aI0
aI0
aI0
asS'negative_words'
p10
(lp11
I0
aI1
aI0
aI0
aI0
aI1
aI2
aI0
aI1
aI0
aI1
aI1
aI0
aI0
aI1
aI4
aI1
aI0
aI0
aI0
aI0
aI0
aI0
aI2
aI0
aI1
aI1
aI1
aI2
aI1
aI0
aI0
asS'positive_words'
p12
(lp13
I2
aI1
aI1
aI0
aI0
aI0
aI2
aI0
aI0
aI0
aI0
aI1
aI0
aI2
aI0
aI1
aI0
aI1
aI0
aI1
aI0
aI0
aI1
aI1
aI0
aI0
aI0
aI1
aI0
aI0
aI0
aI1
asS'adjectives'
p14
(lp15
I0
aI0
aI0
aI0
aI0
aI1
aI3
aI1
aI2
aI0
aI4
aI2
aI0
aI0
aI0
aI0
aI1
aI1
aI0
aI0
aI1
aI1
aI0
aI3
aI1
aI0
aI1
aI1
aI1
aI2
aI2
aI1
asS'words'
p16
(lp17
I22
aI6
aI20
aI17
aI11
aI11
aI26
aI17
aI20
aI29
aI31
aI27
aI3
aI20
aI11
aI20
aI6
aI22
aI4
aI9
aI8
aI14
aI8
aI26
aI14
aI8
aI13
aI17
aI16
aI25
aI25
aI32
as.