(dp1
S'negative_words_hashtags'
p2
(lp3
I0
aI0
aI0
aI0
aI0
aI0
aI0
aI0
aI0
aI0
aI0
aI0
aI0
aI0
aI0
aI0
aI0
aI0
aI0
aI0
aI0
aI0
aI0
aI0
aI0
aI0
aI0
aI0
aI0
aI0
aI0
aI0
aI0
aI0
aI0
aI0
aI0
aI0
aI0
aI0
aI0
aI0
aI0
aI0
aI0
aI0
aI0
aI0
aI0
aI0
aI0
aI0
aI0
aI0
aI0
aI0
aI0
aI0
aI0
aI0
aI0
aI0
aI0
aI0
aI0
aI0
aI0
aI1
aI0
aI0
aI0
aI0
aI0
aI0
aI0
aI0
aI0
aI0
aI0
aI0
aI0
aI0
aI0
aI0
aI0
aI0
aI0
aI0
aI0
aI0
aI0
aI0
aI0
aI0
aI0
aI0
aI0
aI0
aI0
aI0
aI0
aI0
aI0
aI0
aI0
aI0
aI0
aI0
aI0
aI0
aI0
aI0
aI0
aI0
aI0
aI0
aI0
aI0
aI0
aI0
aI0
aI0
aI0
aI0
aI0
aI0
aI0
aI0
aI0
aI0
aI0
aI0
aI0
aI0
aI0
aI0
aI0
aI0
aI0
aI0
aI0
aI0
aI0
aI0
aI0
aI0
aI0
aI0
aI0
aI0
aI0
aI0
aI0
aI0
aI0
aI0
aI0
aI0
aI0
aI0
aI0
aI0
aI0
aI0
aI0
aI0
aI0
aI0
aI0
aI0
aI0
aI0
aI0
aI0
aI0
aI0
aI0
aI0
aI0
aI0
aI0
aI0
aI0
aI0
aI0
aI0
aI0
aI0
aI0
aI0
aI0
aI0
aI0
aI0
aI0
aI0
aI0
aI0
aI0
aI0
aI0
aI0
aI0
aI0
aI0
aI0
aI0
aI0
aI0
aI0
aI0
aI0
aI0
aI0
aI0
aI0
aI0
aI0
aI0
aI0
aI0
aI0
aI0
aI0
aI0
aI0
aI0
aI0
aI0
aI0
aI0
aI0
aI0
aI0
aI0
aI0
aI0
aI0
aI0
aI0
aI0
aI0
aI0
aI0
aI0
aI0
aI0
aI0
aI0
aI0
aI0
aI0
aI0
aI0
aI0
aI0
aI0
aI0
aI0
aI0
aI0
aI0
aI0
aI0
aI0
aI0
aI0
aI0
aI0
aI0
aI0
aI0
aI0
aI0
aI0
aI0
aI0
aI0
aI0
aI0
aI0
aI0
aI0
aI0
aI0
aI0
aI0
aI0
aI0
aI0
aI0
aI0
aI0
aI0
aI0
aI0
aI0
aI0
aI0
aI0
asS'positive_words_hashtags'
p4
(lp5
I0
aI0
aI0
aI0
aI0
aI0
aI0
aI0
aI0
aI0
aI0
aI0
aI0
aI0
aI0
aI0
aI0
aI0
aI0
aI0
aI0
aI0
aI0
aI0
aI0
aI0
aI0
aI0
aI0
aI0
aI0
aI0
aI0
aI0
aI0
aI0
aI0
aI0
aI0
aI0
aI0
aI0
aI0
aI0
aI0
aI0
aI0
aI0
aI0
aI0
aI0
aI0
aI0
aI0
aI0
aI0
aI0
aI0
aI0
aI0
aI0
aI0
aI0
aI0
aI0
aI0
aI0
aI0
aI0
aI0
aI0
aI0
aI0
aI0
aI0
aI0
aI0
aI0
aI0
aI0
aI0
aI0
aI0
aI0
aI0
aI0
aI0
aI0
aI0
aI0
aI0
aI0
aI0
aI0
aI0
aI0
aI0
aI0
aI0
aI0
aI0
aI0
aI0
aI0
aI0
aI0
aI0
aI0
aI0
aI0
aI0
aI0
aI0
aI0
aI0
aI0
aI0
aI0
aI0
aI0
aI0
aI0
aI0
aI0
aI0
aI0
aI0
aI0
aI0
aI0
aI0
aI0
aI0
aI0
aI0
aI0
aI0
aI0
aI0
aI0
aI0
aI0
aI0
aI0
aI0
aI0
aI0
aI0
aI0
aI0
aI0
aI0
aI0
aI0
aI0
aI0
aI0
aI0
aI0
aI0
aI0
aI0
aI0
aI0
aI0
aI0
aI0
aI0
aI0
aI0
aI0
aI0
aI0
aI0
aI0
aI0
aI0
aI0
aI0
aI0
aI0
aI0
aI0
aI0
aI0
aI0
aI0
aI0
aI0
aI0
aI0
aI0
aI0
aI0
aI0
aI0
aI0
aI0
aI0
aI0
aI0
aI0
aI0
aI0
aI0
aI0
aI0
aI0
aI0
aI0
aI0
aI0
aI0
aI0
aI0
aI0
aI0
aI0
aI0
aI0
aI0
aI0
aI0
aI0
aI0
aI0
aI0
aI0
aI0
aI0
aI0
aI0
aI0
aI0
aI1
aI0
aI0
aI0
aI0
aI0
aI0
aI0
aI0
aI0
aI0
aI0
aI0
aI0
aI0
aI0
aI0
aI0
aI0
aI0
aI0
aI0
aI0
aI0
aI0
aI0
aI0
aI0
aI0
aI0
aI0
aI0
aI0
aI0
aI0
aI0
aI0
aI0
aI0
aI0
aI0
aI0
aI0
aI0
aI0
aI0
aI0
aI0
aI0
aI0
aI0
aI0
aI0
aI0
aI0
aI0
aI0
aI0
aI0
aI0
aI0
aI0
aI0
aI0
aI0
aI0
asS'special_punctuation'
p6
(lp7
I0
aI2
aI0
aI0
aI0
aI2
aI0
aI0
aI0
aI6
aI0
aI0
aI4
aI2
aI0
aI0
aI2
aI2
aI8
aI0
aI8
aI0
aI2
aI2
aI0
aI2
aI0
aI8
aI0
aI0
aI10
aI0
aI0
aI0
aI0
aI0
aI0
aI0
aI0
aI2
aI0
aI4
aI2
aI0
aI0
aI0
aI6
aI0
aI0
aI2
aI0
aI8
aI0
aI2
aI2
aI0
aI0
aI0
aI0
aI0
aI0
aI4
aI0
aI0
aI0
aI2
aI2
aI0
aI0
aI0
aI14
aI2
aI0
aI0
aI0
aI6
aI2
aI0
aI4
aI0
aI2
aI4
aI0
aI0
aI2
aI0
aI0
aI2
aI0
aI0
aI0
aI0
aI2
aI2
aI0
aI0
aI0
aI2
aI8
aI2
aI0
aI0
aI0
aI0
aI2
aI0
aI2
aI6
aI0
aI4
aI2
aI0
aI0
aI10
aI0
aI0
aI0
aI0
aI0
aI0
aI0
aI0
aI0
aI0
aI2
aI0
aI4
aI0
aI0
aI2
aI0
aI0
aI8
aI4
aI0
aI0
aI0
aI14
aI0
aI0
aI6
aI0
aI0
aI0
aI6
aI0
aI0
aI0
aI2
aI4
aI0
aI0
aI0
aI0
aI2
aI0
aI0
aI0
aI0
aI4
aI4
aI6
aI4
aI4
aI0
aI0
aI0
aI0
aI2
aI0
aI0
aI4
aI2
aI0
aI4
aI4
aI2
aI0
aI4
aI0
aI0
aI10
aI2
aI0
aI6
aI0
aI0
aI6
aI0
aI0
aI0
aI2
aI0
aI2
aI0
aI0
aI0
aI4
aI0
aI2
aI0
aI2
aI0
aI0
aI0
aI8
aI2
aI0
aI0
aI6
aI0
aI0
aI2
aI0
aI0
aI4
aI0
aI0
aI0
aI0
aI6
aI0
aI0
aI0
aI0
aI0
aI0
aI0
aI0
aI2
aI0
aI0
aI2
aI0
aI0
aI2
aI2
aI0
aI0
aI0
aI0
aI0
aI0
aI0
aI8
aI0
aI0
aI4
aI0
aI0
aI2
aI0
aI0
aI0
aI0
aI0
aI0
aI2
aI0
aI0
aI0
aI0
aI0
aI0
aI2
aI0
aI0
aI0
aI0
aI2
aI2
aI4
aI0
aI0
aI4
aI0
aI0
aI0
aI0
aI0
aI0
aI4
aI0
aI0
aI0
aI0
aI0
aI4
aI0
aI0
aI0
aI0
aI2
aI0
aI0
aI0
aI4
aI2
aI0
aI0
asS'uppercase_words'
p8
(lp9
I0
aI0
aI0
aI0
aI0
aI0
aI0
aI0
aI0
aI1
aI0
aI0
aI0
aI1
aI0
aI0
aI0
aI0
aI11
aI0
aI0
aI0
aI1
aI0
aI0
aI0
aI0
aI1
aI0
aI0
aI0
aI0
aI1
aI0
aI0
aI0
aI3
aI0
aI0
aI1
aI0
aI0
aI1
aI0
aI0
aI1
aI1
aI0
aI1
aI0
aI0
aI1
aI0
aI0
aI1
aI0
aI0
aI0
aI2
aI0
aI0
aI3
aI0
aI1
aI0
aI0
aI1
aI1
aI0
aI0
aI3
aI0
aI0
aI1
aI0
aI0
aI0
aI0
aI0
aI2
aI0
aI1
aI0
aI0
aI0
aI0
aI0
aI7
aI0
aI1
aI0
aI0
aI2
aI2
aI0
aI0
aI1
aI0
aI0
aI3
aI0
aI0
aI1
aI0
aI0
aI0
aI0
aI0
aI0
aI3
aI0
aI0
aI0
aI12
aI1
aI0
aI1
aI4
aI0
aI0
aI0
aI0
aI0
aI0
aI0
aI0
aI0
aI0
aI0
aI0
aI1
aI0
aI0
aI1
aI20
aI0
aI0
aI2
aI1
aI0
aI0
aI0
aI0
aI0
aI22
aI0
aI0
aI0
aI0
aI0
aI0
aI0
aI0
aI0
aI0
aI0
aI0
aI0
aI0
aI1
aI0
aI0
aI0
aI0
aI0
aI0
aI1
aI0
aI1
aI0
aI0
aI0
aI0
aI0
aI1
aI0
aI0
aI2
aI2
aI0
aI0
aI1
aI1
aI0
aI0
aI1
aI0
aI2
aI1
aI0
aI0
aI1
aI0
aI0
aI1
aI0
aI0
aI1
aI0
aI0
aI0
aI0
aI0
aI0
aI0
aI0
aI1
aI0
aI0
aI3
aI0
aI0
aI0
aI1
aI0
aI0
aI0
aI0
aI1
aI0
aI1
aI7
aI1
aI3
aI0
aI4
aI0
aI0
aI0
aI0
aI1
aI1
aI2
aI2
aI1
aI12
aI0
aI0
aI0
aI0
aI1
aI1
aI0
aI2
aI0
aI0
aI0
aI0
aI0
aI0
aI0
aI0
aI1
aI0
aI0
aI0
aI0
aI3
aI0
aI3
aI3
aI0
aI0
aI0
aI1
aI0
aI0
aI0
aI0
aI1
aI1
aI0
aI0
aI0
aI0
aI0
aI0
aI0
aI0
aI0
aI1
aI2
aI1
aI0
aI0
aI0
aI0
aI2
aI0
aI0
aI0
aI0
aI0
aI1
aI1
aI1
aI2
aI0
aI0
aI1
asS'negative_words'
p10
(lp11
I0
aI0
aI1
aI2
aI2
aI0
aI0
aI1
aI1
aI0
aI3
aI1
aI0
aI0
aI1
aI0
aI1
aI3
aI3
aI0
aI0
aI1
aI1
aI2
aI0
aI0
aI4
aI1
aI1
aI0
aI1
aI0
aI2
aI0
aI2
aI1
aI2
aI0
aI0
aI0
aI0
aI5
aI2
aI0
aI0
aI0
aI1
aI1
aI2
aI0
aI0
aI0
aI0
aI0
aI1
aI1
aI0
aI1
aI0
aI0
aI0
aI0
aI0
aI0
aI0
aI1
aI2
aI2
aI0
aI0
aI1
aI0
aI1
aI0
aI0
aI0
aI2
aI3
aI1
aI0
aI2
aI1
aI0
aI1
aI0
aI0
aI1
aI0
aI1
aI1
aI1
aI0
aI1
aI1
aI1
aI0
aI0
aI1
aI0
aI1
aI2
aI0
aI0
aI0
aI0
aI1
aI1
aI1
aI1
aI0
aI0
aI1
aI0
aI1
aI0
aI0
aI2
aI2
aI2
aI0
aI0
aI2
aI1
aI1
aI0
aI0
aI2
aI0
aI2
aI0
aI2
aI3
aI0
aI1
aI2
aI3
aI1
aI4
aI2
aI0
aI0
aI0
aI2
aI1
aI2
aI0
aI1
aI1
aI0
aI2
aI0
aI1
aI2
aI0
aI0
aI0
aI1
aI2
aI1
aI0
aI1
aI1
aI0
aI0
aI1
aI2
aI1
aI2
aI0
aI1
aI1
aI0
aI3
aI0
aI0
aI1
aI1
aI1
aI1
aI1
aI0
aI1
aI0
aI1
aI3
aI0
aI0
aI0
aI0
aI1
aI1
aI3
aI2
aI1
aI0
aI1
aI0
aI1
aI0
aI1
aI1
aI0
aI1
aI1
aI2
aI0
aI0
aI0
aI0
aI3
aI0
aI0
aI0
aI0
aI2
aI1
aI0
aI0
aI1
aI0
aI0
aI2
aI3
aI0
aI0
aI3
aI2
aI1
aI2
aI1
aI1
aI0
aI0
aI0
aI0
aI0
aI2
aI0
aI1
aI2
aI2
aI1
aI0
aI1
aI0
aI0
aI3
aI1
aI2
aI2
aI1
aI0
aI1
aI1
aI3
aI0
aI0
aI1
aI4
aI0
aI0
aI1
aI0
aI0
aI0
aI2
aI2
aI0
aI0
aI2
aI1
aI2
aI0
aI0
aI2
aI1
aI1
aI1
aI1
aI1
aI1
aI1
aI1
aI0
aI0
aI0
aI2
aI1
aI0
aI0
aI0
aI0
aI1
aI0
aI2
aI2
aI0
aI2
aI3
aI1
asS'positive_words'
p12
(lp13
I0
aI0
aI2
aI0
aI0
aI0
aI1
aI0
aI2
aI1
aI2
aI0
aI0
aI1
aI1
aI0
aI2
aI1
aI0
aI0
aI1
aI0
aI0
aI0
aI0
aI1
aI0
aI1
aI0
aI0
aI3
aI1
aI1
aI1
aI1
aI1
aI4
aI1
aI0
aI1
aI0
aI0
aI1
aI1
aI1
aI1
aI3
aI2
aI1
aI0
aI1
aI1
aI0
aI0
aI2
aI0
aI1
aI1
aI1
aI0
aI1
aI0
aI0
aI2
aI3
aI0
aI3
aI0
aI4
aI0
aI0
aI1
aI0
aI0
aI0
aI1
aI0
aI0
aI0
aI0
aI0
aI1
aI0
aI1
aI1
aI1
aI0
aI1
aI1
aI0
aI1
aI2
aI0
aI0
aI0
aI1
aI1
aI2
aI0
aI2
aI0
aI1
aI0
aI0
aI1
aI0
aI0
aI1
aI2
aI0
aI0
aI0
aI0
aI1
aI0
aI0
aI2
aI0
aI0
aI0
aI0
aI0
aI0
aI2
aI0
aI1
aI0
aI1
aI0
aI3
aI1
aI1
aI5
aI0
aI1
aI0
aI0
aI0
aI2
aI0
aI1
aI2
aI1
aI0
aI2
aI0
aI0
aI1
aI0
aI0
aI0
aI0
aI0
aI0
aI3
aI0
aI0
aI0
aI0
aI1
aI0
aI1
aI3
aI1
aI0
aI2
aI1
aI0
aI1
aI0
aI0
aI1
aI0
aI0
aI0
aI2
aI1
aI0
aI0
aI0
aI0
aI1
aI2
aI1
aI1
aI0
aI1
aI1
aI2
aI1
aI0
aI1
aI0
aI2
aI1
aI1
aI3
aI0
aI0
aI1
aI1
aI2
aI0
aI0
aI0
aI2
aI0
aI0
aI2
aI0
aI1
aI1
aI0
aI0
aI1
aI2
aI0
aI1
aI0
aI0
aI0
aI0
aI0
aI2
aI0
aI0
aI0
aI0
aI1
aI3
aI2
aI2
aI0
aI1
aI1
aI2
aI0
aI1
aI0
aI0
aI0
aI0
aI1
aI0
aI0
aI2
aI0
aI0
aI0
aI0
aI1
aI0
aI1
aI0
aI0
aI2
aI0
aI1
aI2
aI1
aI0
aI0
aI1
aI0
aI1
aI0
aI0
aI1
aI0
aI0
aI1
aI0
aI0
aI1
aI1
aI1
aI1
aI0
aI0
aI1
aI0
aI1
aI1
aI0
aI2
aI0
aI0
aI2
aI0
aI3
aI0
aI1
aI1
aI1
aI2
aI2
aI1
aI0
aI0
aI1
asS'adjectives'
p14
(lp15
I2
aI2
aI1
aI4
aI2
aI2
aI0
aI0
aI2
aI1
aI2
aI0
aI2
aI1
aI2
aI0
aI0
aI1
aI2
aI0
aI3
aI2
aI0
aI1
aI1
aI4
aI1
aI2
aI0
aI1
aI3
aI0
aI0
aI1
aI1
aI3
aI4
aI1
aI0
aI0
aI1
aI3
aI3
aI3
aI1
aI0
aI3
aI1
aI1
aI3
aI2
aI2
aI3
aI0
aI2
aI0
aI0
aI1
aI2
aI2
aI2
aI2
aI1
aI0
aI2
aI0
aI0
aI1
aI2
aI0
aI0
aI3
aI0
aI1
aI2
aI0
aI1
aI0
aI1
aI3
aI2
aI0
aI0
aI1
aI1
aI0
aI2
aI1
aI2
aI1
aI0
aI2
aI2
aI2
aI1
aI2
aI1
aI2
aI0
aI2
aI2
aI1
aI0
aI2
aI0
aI1
aI0
aI0
aI2
aI1
aI0
aI2
aI2
aI2
aI3
aI0
aI2
aI0
aI1
aI2
aI2
aI2
aI1
aI0
aI0
aI0
aI0
aI1
aI1
aI0
aI1
aI2
aI1
aI1
aI0
aI0
aI0
aI2
aI3
aI2
aI1
aI0
aI2
aI2
aI1
aI1
aI1
aI1
aI1
aI1
aI0
aI2
aI3
aI0
aI2
aI2
aI1
aI0
aI2
aI0
aI4
aI2
aI3
aI1
aI1
aI1
aI2
aI0
aI3
aI0
aI0
aI2
aI2
aI1
aI0
aI3
aI0
aI4
aI0
aI0
aI1
aI0
aI2
aI1
aI1
aI4
aI0
aI1
aI1
aI0
aI2
aI3
aI1
aI1
aI2
aI0
aI2
aI0
aI1
aI1
aI2
aI1
aI0
aI2
aI0
aI0
aI1
aI0
aI0
aI1
aI2
aI0
aI2
aI0
aI3
aI3
aI0
aI0
aI3
aI1
aI3
aI1
aI1
aI0
aI1
aI2
aI3
aI2
aI2
aI2
aI2
aI3
aI0
aI0
aI3
aI2
aI2
aI1
aI1
aI0
aI2
aI1
aI0
aI1
aI1
aI2
aI4
aI2
aI1
aI0
aI3
aI0
aI0
aI0
aI0
aI0
aI1
aI0
aI2
aI3
aI2
aI2
aI1
aI0
aI0
aI2
aI1
aI3
aI1
aI3
aI0
aI1
aI0
aI2
aI0
aI2
aI2
aI1
aI0
aI0
aI2
aI3
aI0
aI0
aI2
aI1
aI0
aI1
aI1
aI1
aI0
aI2
aI1
aI2
aI1
aI1
aI0
aI2
aI1
aI1
asS'words'
p16
(lp17
I22
aI30
aI23
aI24
aI28
aI19
aI10
aI8
aI25
aI35
aI25
aI10
aI19
aI15
aI16
aI19
aI14
aI30
aI31
aI14
aI24
aI6
aI20
aI20
aI26
aI28
aI25
aI16
aI10
aI12
aI20
aI23
aI25
aI26
aI32
aI40
aI30
aI26
aI7
aI7
aI14
aI23
aI26
aI16
aI9
aI18
aI25
aI24
aI27
aI22
aI24
aI32
aI31
aI16
aI17
aI14
aI16
aI9
aI23
aI32
aI18
aI13
aI24
aI25
aI18
aI21
aI18
aI18
aI29
aI26
aI14
aI31
aI9
aI29
aI23
aI25
aI27
aI13
aI18
aI20
aI28
aI7
aI10
aI25
aI19
aI15
aI26
aI20
aI20
aI28
aI27
aI26
aI27
aI27
aI7
aI20
aI25
aI24
aI28
aI27
aI15
aI30
aI15
aI28
aI14
aI28
aI6
aI12
aI16
aI23
aI10
aI28
aI26
aI24
aI30
aI21
aI24
aI29
aI22
aI19
aI20
aI32
aI18
aI18
aI16
aI22
aI24
aI24
aI16
aI27
aI26
aI24
aI24
aI15
aI31
aI13
aI32
aI28
aI27
aI21
aI32
aI20
aI24
aI21
aI32
aI20
aI11
aI20
aI24
aI26
aI27
aI19
aI27
aI11
aI20
aI18
aI17
aI12
aI11
aI24
aI27
aI29
aI22
aI18
aI16
aI31
aI26
aI16
aI30
aI10
aI10
aI30
aI17
aI25
aI9
aI16
aI13
aI21
aI40
aI17
aI20
aI21
aI24
aI19
aI16
aI24
aI13
aI18
aI20
aI32
aI29
aI18
aI15
aI18
aI14
aI15
aI28
aI13
aI12
aI24
aI18
aI31
aI10
aI25
aI19
aI25
aI27
aI15
aI14
aI28
aI29
aI14
aI20
aI21
aI15
aI28
aI17
aI32
aI27
aI12
aI32
aI22
aI25
aI18
aI26
aI33
aI28
aI17
aI22
aI31
aI32
aI25
aI10
aI14
aI22
aI28
aI18
aI32
aI27
aI19
aI26
aI14
aI19
aI13
aI23
aI27
aI27
aI18
aI28
aI21
aI30
aI22
aI20
aI18
aI17
aI16
aI13
aI15
aI24
aI24
aI27
aI19
aI10
aI27
aI10
aI25
aI29
aI30
aI26
aI27
aI16
aI14
aI32
aI21
aI25
aI27
aI29
aI33
aI8
aI33
aI25
aI26
aI17
aI30
aI22
aI15
aI14
aI26
aI18
aI31
aI9
aI15
aI18
aI20
aI26
aI26
aI14
aI20
aI11
aI24
as.