(dp1
S'negative_words_hashtags'
p2
(lp3
I0
aI0
aI0
aI0
aI0
aI0
aI0
aI0
aI0
aI0
aI0
aI0
aI0
aI0
aI0
aI0
aI0
aI0
aI0
aI1
aI0
aI0
aI0
aI0
aI0
aI0
aI0
aI0
aI0
aI0
aI0
aI0
aI0
aI0
aI0
aI0
aI0
aI0
aI0
aI0
aI0
aI0
aI0
aI0
aI0
aI0
aI0
aI0
aI0
aI0
aI0
aI0
aI0
aI0
aI0
aI0
aI0
aI0
aI0
aI0
aI0
aI0
aI0
aI0
aI0
aI0
aI0
aI0
aI0
aI0
aI0
aI0
aI0
aI0
aI0
aI0
aI0
aI0
aI0
aI0
aI0
aI0
aI0
aI0
aI0
aI0
aI0
aI0
aI0
aI0
aI0
aI0
aI0
aI0
aI0
aI0
aI0
aI0
aI0
aI0
aI0
aI0
aI0
aI0
aI0
aI0
aI0
aI0
aI0
aI0
aI0
aI0
aI0
aI0
aI0
aI0
aI0
aI0
aI0
aI0
aI0
aI0
aI0
aI0
aI0
aI0
aI0
aI0
aI0
aI0
aI0
aI0
aI0
aI0
aI0
aI0
aI0
aI0
aI0
aI0
aI0
aI0
aI0
aI0
aI0
aI0
aI0
aI0
aI0
aI0
aI0
aI0
aI0
aI0
aI0
aI0
aI0
aI0
aI0
aI0
aI0
aI0
aI0
aI0
aI0
aI0
aI0
aI0
aI0
aI0
aI0
aI0
aI0
aI0
aI0
aI0
aI0
aI0
aI0
aI0
aI0
aI0
aI0
aI0
aI0
aI0
aI0
aI0
aI0
aI0
aI0
aI0
aI0
aI0
aI0
aI0
aI0
aI0
aI0
aI0
aI0
aI0
aI0
aI0
aI0
aI0
aI0
aI0
aI0
aI0
aI0
aI0
aI0
aI0
aI0
aI0
aI0
aI0
aI0
aI0
aI0
aI0
aI0
aI0
aI0
aI0
aI0
aI0
aI0
aI0
aI0
aI0
aI0
aI0
aI0
aI0
aI0
aI0
aI0
aI0
aI0
aI0
aI0
aI0
aI0
aI0
aI0
aI0
aI0
aI0
aI0
aI0
aI0
aI0
aI0
aI0
aI0
aI0
aI0
aI0
aI0
aI0
aI0
aI0
aI0
aI0
aI0
aI0
aI0
aI0
aI0
aI0
aI0
aI0
aI0
aI0
aI0
aI0
aI0
aI0
aI0
aI0
aI0
aI0
aI0
aI0
aI0
aI0
aI0
aI0
aI0
aI0
aI0
aI0
aI0
aI0
aI0
aI0
aI0
aI0
asS'positive_words_hashtags'
p4
(lp5
I0
aI2
aI0
aI0
aI0
aI0
aI0
aI0
aI0
aI0
aI0
aI0
aI0
aI0
aI0
aI0
aI0
aI0
aI0
aI0
aI0
aI0
aI0
aI0
aI0
aI0
aI0
aI0
aI0
aI0
aI0
aI0
aI0
aI0
aI0
aI0
aI0
aI0
aI0
aI0
aI0
aI0
aI0
aI0
aI0
aI0
aI0
aI0
aI0
aI0
aI0
aI0
aI0
aI0
aI0
aI0
aI0
aI0
aI0
aI0
aI0
aI0
aI0
aI0
aI0
aI0
aI0
aI0
aI0
aI0
aI0
aI0
aI0
aI0
aI0
aI0
aI0
aI0
aI0
aI0
aI0
aI0
aI0
aI0
aI0
aI0
aI0
aI0
aI0
aI0
aI0
aI0
aI0
aI0
aI0
aI0
aI0
aI0
aI0
aI0
aI0
aI0
aI0
aI0
aI0
aI0
aI0
aI0
aI0
aI0
aI0
aI0
aI0
aI0
aI0
aI0
aI0
aI0
aI0
aI0
aI0
aI0
aI0
aI0
aI0
aI0
aI0
aI0
aI0
aI0
aI0
aI0
aI0
aI0
aI0
aI0
aI0
aI0
aI0
aI0
aI0
aI0
aI0
aI0
aI0
aI0
aI0
aI0
aI0
aI0
aI0
aI0
aI0
aI0
aI0
aI0
aI0
aI0
aI0
aI0
aI0
aI0
aI0
aI0
aI0
aI0
aI0
aI0
aI0
aI0
aI0
aI0
aI0
aI0
aI0
aI0
aI0
aI0
aI0
aI0
aI0
aI0
aI0
aI0
aI0
aI0
aI0
aI0
aI0
aI0
aI0
aI0
aI0
aI0
aI0
aI0
aI0
aI0
aI0
aI0
aI0
aI0
aI0
aI0
aI0
aI0
aI0
aI0
aI0
aI0
aI0
aI0
aI0
aI0
aI0
aI0
aI0
aI0
aI0
aI0
aI0
aI0
aI0
aI0
aI0
aI0
aI0
aI0
aI0
aI0
aI0
aI0
aI0
aI0
aI0
aI0
aI0
aI0
aI0
aI0
aI0
aI0
aI0
aI0
aI0
aI0
aI0
aI0
aI0
aI0
aI0
aI0
aI0
aI0
aI0
aI0
aI0
aI0
aI0
aI0
aI0
aI0
aI0
aI0
aI0
aI0
aI0
aI0
aI0
aI0
aI0
aI0
aI0
aI0
aI0
aI0
aI0
aI0
aI0
aI0
aI0
aI0
aI0
aI0
aI0
aI0
aI0
aI0
aI0
aI0
aI0
aI0
aI0
aI0
aI0
aI0
aI0
aI0
aI0
aI0
asS'special_punctuation'
p6
(lp7
I0
aI2
aI2
aI0
aI6
aI0
aI0
aI0
aI2
aI0
aI2
aI2
aI0
aI8
aI2
aI0
aI0
aI0
aI0
aI2
aI8
aI0
aI0
aI0
aI0
aI4
aI0
aI0
aI0
aI0
aI6
aI0
aI0
aI0
aI0
aI2
aI0
aI0
aI0
aI0
aI0
aI0
aI0
aI2
aI2
aI0
aI0
aI4
aI8
aI0
aI0
aI4
aI0
aI0
aI2
aI2
aI2
aI8
aI2
aI4
aI2
aI0
aI0
aI0
aI0
aI0
aI0
aI0
aI2
aI6
aI0
aI0
aI0
aI0
aI0
aI0
aI0
aI2
aI4
aI0
aI0
aI0
aI0
aI0
aI0
aI0
aI0
aI12
aI0
aI2
aI0
aI0
aI8
aI0
aI0
aI2
aI0
aI0
aI0
aI0
aI0
aI0
aI0
aI0
aI0
aI0
aI0
aI0
aI0
aI6
aI28
aI0
aI0
aI4
aI2
aI2
aI0
aI0
aI0
aI0
aI2
aI2
aI0
aI2
aI0
aI0
aI0
aI0
aI0
aI0
aI0
aI0
aI2
aI0
aI0
aI6
aI0
aI0
aI4
aI2
aI4
aI0
aI0
aI2
aI0
aI0
aI2
aI0
aI0
aI4
aI0
aI0
aI0
aI0
aI0
aI0
aI0
aI0
aI0
aI0
aI0
aI10
aI2
aI4
aI0
aI0
aI0
aI0
aI14
aI0
aI4
aI0
aI2
aI2
aI0
aI8
aI0
aI0
aI0
aI0
aI0
aI0
aI2
aI0
aI0
aI0
aI4
aI2
aI0
aI0
aI0
aI0
aI0
aI8
aI2
aI2
aI0
aI0
aI0
aI0
aI0
aI8
aI0
aI0
aI0
aI0
aI0
aI0
aI2
aI0
aI0
aI0
aI4
aI0
aI0
aI2
aI0
aI0
aI0
aI4
aI2
aI0
aI0
aI2
aI4
aI0
aI0
aI10
aI0
aI0
aI4
aI0
aI0
aI2
aI2
aI8
aI2
aI2
aI0
aI2
aI0
aI0
aI0
aI0
aI2
aI0
aI0
aI2
aI0
aI0
aI0
aI0
aI0
aI0
aI0
aI0
aI0
aI0
aI0
aI0
aI6
aI0
aI4
aI2
aI6
aI2
aI12
aI0
aI2
aI2
aI2
aI4
aI0
aI0
aI0
aI0
aI0
aI0
aI0
aI10
aI0
aI0
aI4
aI0
aI0
aI0
aI0
aI0
aI0
aI0
aI0
aI0
aI0
aI0
aI0
aI2
aI0
aI0
aI0
aI0
asS'uppercase_words'
p8
(lp9
I0
aI0
aI0
aI0
aI0
aI0
aI0
aI0
aI0
aI0
aI0
aI0
aI0
aI2
aI0
aI0
aI2
aI0
aI0
aI0
aI1
aI0
aI0
aI0
aI0
aI0
aI0
aI0
aI0
aI0
aI2
aI0
aI0
aI0
aI0
aI0
aI0
aI0
aI1
aI0
aI0
aI0
aI0
aI0
aI0
aI0
aI0
aI6
aI0
aI0
aI0
aI0
aI2
aI0
aI0
aI0
aI0
aI0
aI1
aI0
aI1
aI0
aI0
aI0
aI0
aI0
aI0
aI0
aI0
aI4
aI0
aI0
aI0
aI3
aI0
aI0
aI0
aI1
aI0
aI0
aI1
aI0
aI0
aI0
aI0
aI0
aI0
aI0
aI0
aI0
aI0
aI2
aI0
aI0
aI0
aI1
aI0
aI0
aI1
aI0
aI1
aI0
aI0
aI0
aI0
aI2
aI0
aI0
aI0
aI0
aI2
aI0
aI0
aI2
aI1
aI0
aI0
aI0
aI1
aI1
aI0
aI20
aI1
aI0
aI0
aI1
aI0
aI0
aI0
aI0
aI0
aI0
aI0
aI1
aI0
aI0
aI0
aI1
aI0
aI0
aI0
aI0
aI0
aI2
aI0
aI1
aI0
aI0
aI1
aI0
aI0
aI0
aI3
aI1
aI0
aI0
aI0
aI1
aI0
aI0
aI0
aI1
aI0
aI0
aI0
aI0
aI0
aI0
aI0
aI0
aI8
aI0
aI0
aI0
aI0
aI2
aI0
aI0
aI0
aI0
aI0
aI0
aI0
aI0
aI0
aI0
aI0
aI0
aI0
aI0
aI0
aI0
aI0
aI0
aI0
aI0
aI0
aI0
aI1
aI0
aI0
aI0
aI0
aI0
aI3
aI0
aI0
aI0
aI1
aI0
aI0
aI0
aI1
aI0
aI0
aI0
aI0
aI1
aI0
aI1
aI0
aI0
aI0
aI0
aI0
aI0
aI0
aI0
aI1
aI1
aI0
aI0
aI0
aI0
aI0
aI0
aI0
aI0
aI0
aI0
aI5
aI0
aI0
aI0
aI0
aI0
aI0
aI0
aI0
aI0
aI0
aI0
aI0
aI0
aI0
aI0
aI1
aI0
aI0
aI0
aI2
aI0
aI0
aI1
aI0
aI0
aI0
aI3
aI0
aI0
aI2
aI0
aI0
aI0
aI0
aI0
aI0
aI0
aI0
aI2
aI0
aI0
aI0
aI0
aI0
aI0
aI0
aI0
aI0
aI0
aI1
aI0
aI0
aI1
aI1
aI1
aI0
aI0
aI0
aI0
asS'negative_words'
p10
(lp11
I0
aI0
aI2
aI0
aI1
aI1
aI0
aI0
aI0
aI0
aI3
aI2
aI0
aI3
aI0
aI1
aI2
aI0
aI0
aI1
aI0
aI1
aI0
aI0
aI1
aI0
aI0
aI0
aI0
aI4
aI2
aI0
aI0
aI1
aI2
aI0
aI1
aI1
aI0
aI0
aI0
aI2
aI2
aI2
aI0
aI1
aI1
aI0
aI1
aI0
aI1
aI0
aI1
aI1
aI0
aI1
aI0
aI4
aI1
aI1
aI0
aI0
aI0
aI1
aI1
aI0
aI0
aI0
aI0
aI1
aI1
aI2
aI0
aI0
aI0
aI0
aI0
aI1
aI0
aI1
aI0
aI1
aI1
aI0
aI1
aI1
aI1
aI1
aI1
aI0
aI1
aI0
aI1
aI0
aI1
aI1
aI0
aI1
aI1
aI0
aI2
aI1
aI1
aI0
aI0
aI2
aI0
aI0
aI1
aI0
aI0
aI0
aI0
aI0
aI2
aI1
aI2
aI0
aI1
aI0
aI0
aI0
aI2
aI0
aI1
aI0
aI0
aI0
aI2
aI0
aI2
aI1
aI0
aI0
aI0
aI0
aI1
aI0
aI0
aI0
aI1
aI1
aI0
aI0
aI0
aI3
aI0
aI0
aI1
aI0
aI0
aI0
aI0
aI0
aI1
aI0
aI1
aI1
aI1
aI1
aI0
aI0
aI1
aI2
aI0
aI0
aI1
aI2
aI3
aI0
aI0
aI0
aI0
aI1
aI1
aI2
aI0
aI0
aI1
aI0
aI1
aI1
aI1
aI2
aI2
aI1
aI0
aI0
aI1
aI0
aI0
aI0
aI0
aI0
aI0
aI2
aI0
aI1
aI1
aI0
aI1
aI0
aI0
aI1
aI2
aI0
aI0
aI0
aI0
aI1
aI0
aI0
aI0
aI1
aI0
aI0
aI1
aI0
aI0
aI1
aI1
aI1
aI1
aI2
aI1
aI1
aI2
aI0
aI0
aI0
aI0
aI0
aI3
aI0
aI0
aI0
aI2
aI2
aI1
aI0
aI0
aI1
aI0
aI0
aI1
aI0
aI1
aI1
aI1
aI0
aI0
aI0
aI2
aI0
aI0
aI0
aI0
aI1
aI1
aI1
aI0
aI0
aI3
aI1
aI0
aI0
aI0
aI2
aI3
aI2
aI2
aI0
aI0
aI1
aI0
aI0
aI1
aI3
aI0
aI2
aI0
aI1
aI1
aI1
aI0
aI0
aI3
aI1
aI1
aI1
aI1
aI2
aI0
aI2
aI1
aI0
aI0
aI0
aI1
aI1
asS'positive_words'
p12
(lp13
I0
aI1
aI2
aI1
aI0
aI2
aI0
aI2
aI0
aI0
aI1
aI3
aI3
aI2
aI1
aI0
aI1
aI0
aI0
aI1
aI0
aI0
aI0
aI1
aI0
aI0
aI1
aI0
aI0
aI0
aI0
aI0
aI1
aI1
aI0
aI0
aI0
aI1
aI0
aI0
aI2
aI0
aI1
aI1
aI1
aI0
aI1
aI0
aI1
aI1
aI4
aI1
aI1
aI1
aI3
aI1
aI0
aI0
aI2
aI0
aI2
aI0
aI0
aI1
aI0
aI0
aI0
aI0
aI0
aI0
aI1
aI1
aI1
aI0
aI0
aI3
aI1
aI0
aI2
aI0
aI1
aI0
aI0
aI2
aI1
aI0
aI3
aI0
aI0
aI1
aI0
aI0
aI0
aI0
aI0
aI1
aI0
aI3
aI0
aI0
aI0
aI2
aI0
aI1
aI1
aI0
aI0
aI1
aI0
aI1
aI1
aI3
aI1
aI2
aI0
aI0
aI0
aI0
aI0
aI1
aI1
aI1
aI2
aI1
aI2
aI0
aI1
aI1
aI0
aI0
aI2
aI0
aI0
aI0
aI0
aI0
aI1
aI2
aI1
aI0
aI0
aI0
aI1
aI2
aI1
aI2
aI1
aI0
aI0
aI0
aI0
aI0
aI1
aI0
aI2
aI0
aI1
aI2
aI1
aI0
aI0
aI1
aI2
aI0
aI1
aI0
aI0
aI1
aI1
aI0
aI1
aI0
aI0
aI0
aI2
aI1
aI2
aI1
aI1
aI2
aI1
aI1
aI1
aI1
aI1
aI0
aI2
aI0
aI1
aI0
aI6
aI0
aI2
aI0
aI1
aI1
aI0
aI0
aI2
aI2
aI1
aI5
aI1
aI0
aI2
aI0
aI0
aI0
aI0
aI0
aI0
aI1
aI2
aI2
aI1
aI0
aI1
aI0
aI0
aI0
aI0
aI0
aI0
aI1
aI2
aI0
aI5
aI0
aI2
aI2
aI1
aI0
aI0
aI3
aI1
aI2
aI1
aI1
aI1
aI0
aI1
aI3
aI0
aI0
aI0
aI0
aI1
aI0
aI0
aI0
aI0
aI0
aI0
aI0
aI1
aI0
aI2
aI2
aI1
aI1
aI1
aI1
aI1
aI0
aI0
aI0
aI2
aI1
aI1
aI0
aI1
aI1
aI1
aI0
aI0
aI0
aI2
aI0
aI1
aI0
aI0
aI0
aI3
aI0
aI0
aI0
aI1
aI1
aI0
aI2
aI0
aI1
aI0
aI0
aI0
aI1
aI2
aI0
aI0
aI0
asS'adjectives'
p14
(lp15
I0
aI0
aI1
aI2
aI2
aI0
aI1
aI1
aI0
aI1
aI2
aI0
aI1
aI1
aI2
aI0
aI2
aI0
aI0
aI2
aI1
aI2
aI1
aI5
aI1
aI0
aI2
aI0
aI1
aI1
aI2
aI0
aI1
aI3
aI0
aI2
aI1
aI0
aI0
aI0
aI3
aI3
aI1
aI0
aI0
aI0
aI0
aI2
aI1
aI0
aI1
aI2
aI0
aI3
aI6
aI2
aI1
aI3
aI2
aI3
aI0
aI0
aI1
aI2
aI1
aI0
aI0
aI0
aI0
aI1
aI2
aI0
aI1
aI1
aI1
aI0
aI0
aI4
aI3
aI0
aI1
aI3
aI1
aI0
aI1
aI1
aI3
aI1
aI1
aI0
aI2
aI0
aI3
aI1
aI1
aI0
aI1
aI1
aI0
aI0
aI1
aI2
aI0
aI1
aI4
aI1
aI0
aI1
aI3
aI1
aI1
aI2
aI1
aI1
aI1
aI2
aI0
aI0
aI2
aI3
aI0
aI3
aI1
aI2
aI4
aI1
aI0
aI0
aI1
aI0
aI4
aI1
aI1
aI0
aI0
aI0
aI1
aI2
aI0
aI1
aI2
aI2
aI0
aI0
aI1
aI3
aI0
aI1
aI0
aI1
aI0
aI1
aI1
aI2
aI2
aI1
aI2
aI2
aI2
aI0
aI2
aI1
aI3
aI1
aI4
aI1
aI0
aI1
aI0
aI0
aI0
aI0
aI0
aI2
aI2
aI2
aI1
aI0
aI1
aI1
aI1
aI2
aI1
aI3
aI1
aI0
aI1
aI1
aI1
aI1
aI1
aI0
aI0
aI1
aI2
aI4
aI1
aI0
aI4
aI0
aI1
aI3
aI1
aI0
aI1
aI2
aI2
aI0
aI1
aI1
aI2
aI2
aI1
aI2
aI3
aI2
aI0
aI1
aI1
aI2
aI0
aI0
aI2
aI0
aI1
aI3
aI0
aI0
aI3
aI0
aI3
aI1
aI2
aI1
aI1
aI0
aI2
aI2
aI1
aI1
aI1
aI1
aI2
aI1
aI1
aI0
aI0
aI1
aI0
aI0
aI0
aI0
aI0
aI2
aI1
aI1
aI2
aI2
aI0
aI2
aI0
aI1
aI2
aI2
aI0
aI0
aI2
aI0
aI2
aI1
aI2
aI2
aI0
aI0
aI0
aI2
aI3
aI2
aI1
aI0
aI1
aI0
aI2
aI0
aI0
aI0
aI2
aI0
aI0
aI1
aI1
aI2
aI0
aI0
aI0
aI0
aI2
aI0
aI0
aI0
asS'words'
p16
(lp17
I11
aI17
aI13
aI14
aI27
aI26
aI13
aI22
aI16
aI24
aI23
aI22
aI22
aI24
aI19
aI12
aI27
aI18
aI18
aI29
aI22
aI20
aI14
aI27
aI13
aI7
aI20
aI22
aI18
aI14
aI19
aI10
aI18
aI21
aI6
aI17
aI13
aI22
aI19
aI21
aI24
aI26
aI18
aI11
aI17
aI18
aI16
aI32
aI20
aI14
aI31
aI18
aI23
aI22
aI21
aI27
aI21
aI22
aI20
aI24
aI9
aI23
aI7
aI17
aI14
aI11
aI4
aI17
aI7
aI5
aI22
aI19
aI23
aI16
aI23
aI14
aI16
aI22
aI17
aI14
aI16
aI15
aI24
aI19
aI23
aI15
aI24
aI16
aI18
aI18
aI22
aI22
aI13
aI5
aI21
aI25
aI8
aI26
aI9
aI10
aI26
aI17
aI21
aI13
aI34
aI15
aI9
aI22
aI21
aI23
aI30
aI23
aI28
aI24
aI30
aI24
aI13
aI5
aI16
aI22
aI11
aI25
aI23
aI27
aI19
aI20
aI9
aI15
aI11
aI6
aI22
aI6
aI18
aI14
aI11
aI11
aI21
aI12
aI17
aI9
aI15
aI24
aI11
aI20
aI21
aI22
aI10
aI29
aI6
aI18
aI26
aI23
aI26
aI19
aI21
aI9
aI32
aI22
aI11
aI14
aI11
aI24
aI21
aI18
aI14
aI19
aI20
aI22
aI14
aI10
aI25
aI8
aI7
aI23
aI14
aI30
aI10
aI17
aI15
aI18
aI15
aI22
aI18
aI14
aI22
aI14
aI20
aI10
aI17
aI15
aI27
aI10
aI14
aI13
aI24
aI22
aI25
aI18
aI24
aI10
aI17
aI28
aI12
aI9
aI23
aI11
aI14
aI7
aI22
aI10
aI24
aI19
aI24
aI10
aI16
aI14
aI24
aI21
aI10
aI25
aI20
aI13
aI20
aI22
aI25
aI19
aI21
aI19
aI26
aI16
aI21
aI6
aI25
aI19
aI21
aI24
aI24
aI21
aI21
aI8
aI15
aI20
aI29
aI16
aI22
aI13
aI7
aI8
aI21
aI33
aI15
aI34
aI23
aI17
aI24
aI15
aI25
aI14
aI20
aI20
aI23
aI20
aI21
aI15
aI23
aI11
aI19
aI23
aI22
aI23
aI20
aI24
aI13
aI18
aI11
aI25
aI17
aI19
aI21
aI15
aI7
aI21
aI26
aI9
aI10
aI20
aI20
aI16
aI10
aI25
aI21
aI25
aI12
aI17
aI12
aI26
aI22
aI17
aI16
aI17
as.