(dp1
S'negative_words_hashtags'
p2
(lp3
I0
aI0
aI0
aI0
aI0
aI0
aI0
aI0
aI0
aI0
aI0
aI0
aI0
aI0
aI0
aI0
aI0
aI0
aI0
aI0
aI0
aI0
aI0
aI0
aI0
aI0
aI0
aI0
aI0
aI0
aI0
aI0
aI0
aI0
aI0
aI0
aI0
aI0
aI0
aI0
aI0
aI0
aI0
aI0
aI0
aI0
aI0
aI0
aI0
aI0
aI0
aI0
aI0
aI0
aI0
aI0
aI0
aI0
aI0
aI0
aI0
aI0
aI0
aI0
aI0
aI0
aI0
aI0
aI0
aI0
aI0
aI0
aI0
aI0
aI0
aI0
aI0
aI0
aI0
aI0
aI0
aI0
aI0
aI0
aI0
aI0
aI0
aI0
aI0
aI0
aI0
aI0
aI0
aI0
aI0
aI0
aI0
aI0
aI0
aI0
aI0
aI0
aI0
aI0
aI0
aI0
aI0
aI0
aI0
aI0
aI0
aI0
aI0
aI0
aI0
aI0
aI0
aI0
aI0
aI0
aI0
aI0
aI0
aI0
aI0
aI0
aI0
aI0
aI0
aI0
aI0
aI0
aI0
aI0
aI0
aI0
aI0
aI0
aI0
aI0
aI0
aI0
aI0
aI0
aI0
aI0
aI0
aI0
aI0
aI0
aI0
aI0
aI0
aI0
aI0
aI0
aI0
aI0
aI0
aI0
aI0
aI0
aI0
aI0
aI0
aI0
aI0
aI0
aI0
aI0
aI0
aI0
aI0
aI0
aI0
aI0
aI0
aI0
aI0
aI0
aI0
aI0
aI0
aI0
aI0
aI0
aI0
aI0
aI0
aI0
aI0
aI0
aI0
aI0
aI0
aI0
aI0
aI0
aI0
aI0
aI0
aI0
aI0
aI0
aI0
aI0
aI0
aI0
aI0
aI0
aI0
aI0
aI0
aI0
aI0
aI0
aI0
aI0
aI0
aI0
aI0
aI0
aI0
aI0
aI0
aI0
aI0
aI0
aI0
aI0
aI0
aI0
aI0
aI0
aI0
aI0
aI0
aI0
aI0
aI0
aI0
aI0
aI0
aI0
aI0
aI0
aI0
aI0
aI0
aI0
aI0
aI0
aI0
aI0
aI0
aI0
aI0
aI0
aI0
aI0
aI0
aI0
aI0
aI0
aI0
aI0
aI0
aI0
aI0
aI0
aI0
aI0
aI0
aI0
aI0
aI0
aI0
aI0
aI0
aI0
aI0
aI0
aI0
aI0
aI0
aI0
aI0
aI0
aI0
aI0
aI0
aI0
aI0
aI0
aI0
aI0
aI0
aI0
aI0
aI0
asS'positive_words_hashtags'
p4
(lp5
I0
aI0
aI0
aI0
aI0
aI0
aI0
aI0
aI0
aI0
aI0
aI0
aI0
aI0
aI0
aI0
aI0
aI0
aI0
aI0
aI0
aI0
aI0
aI0
aI0
aI0
aI0
aI0
aI0
aI0
aI0
aI0
aI0
aI0
aI0
aI0
aI0
aI0
aI0
aI0
aI0
aI0
aI0
aI0
aI0
aI0
aI0
aI0
aI0
aI0
aI0
aI0
aI0
aI0
aI0
aI0
aI0
aI0
aI0
aI0
aI0
aI0
aI0
aI0
aI0
aI0
aI0
aI0
aI0
aI0
aI0
aI0
aI0
aI0
aI0
aI0
aI0
aI0
aI0
aI0
aI0
aI0
aI0
aI0
aI0
aI0
aI0
aI0
aI0
aI0
aI0
aI0
aI0
aI0
aI0
aI0
aI0
aI0
aI0
aI0
aI0
aI0
aI0
aI0
aI0
aI0
aI0
aI0
aI0
aI0
aI0
aI0
aI0
aI0
aI0
aI0
aI0
aI0
aI0
aI0
aI0
aI0
aI0
aI0
aI0
aI0
aI0
aI0
aI0
aI0
aI0
aI0
aI0
aI0
aI0
aI0
aI0
aI0
aI0
aI0
aI0
aI0
aI0
aI0
aI0
aI0
aI0
aI0
aI0
aI0
aI0
aI0
aI0
aI0
aI0
aI0
aI0
aI0
aI0
aI0
aI0
aI0
aI0
aI0
aI0
aI0
aI0
aI0
aI0
aI0
aI0
aI0
aI0
aI0
aI0
aI0
aI0
aI0
aI0
aI0
aI0
aI0
aI0
aI0
aI0
aI0
aI0
aI0
aI0
aI0
aI0
aI0
aI0
aI0
aI0
aI0
aI0
aI0
aI0
aI0
aI0
aI0
aI0
aI0
aI0
aI0
aI0
aI0
aI0
aI0
aI0
aI0
aI0
aI0
aI0
aI0
aI0
aI0
aI0
aI0
aI0
aI0
aI0
aI0
aI0
aI0
aI0
aI0
aI0
aI0
aI0
aI0
aI0
aI0
aI0
aI0
aI0
aI0
aI0
aI0
aI0
aI0
aI0
aI0
aI0
aI0
aI0
aI0
aI0
aI0
aI0
aI0
aI0
aI0
aI0
aI0
aI0
aI0
aI0
aI0
aI0
aI0
aI0
aI0
aI0
aI0
aI0
aI0
aI0
aI0
aI0
aI0
aI0
aI0
aI0
aI0
aI0
aI0
aI0
aI0
aI0
aI0
aI0
aI0
aI0
aI0
aI0
aI0
aI0
aI0
aI0
aI0
aI0
aI0
aI0
aI0
aI0
aI0
aI0
aI0
asS'special_punctuation'
p6
(lp7
I0
aI0
aI4
aI0
aI2
aI0
aI0
aI0
aI0
aI0
aI0
aI0
aI0
aI2
aI0
aI8
aI0
aI2
aI0
aI2
aI0
aI2
aI0
aI6
aI0
aI0
aI6
aI0
aI0
aI4
aI0
aI2
aI0
aI0
aI0
aI2
aI0
aI0
aI8
aI0
aI0
aI0
aI0
aI0
aI0
aI12
aI0
aI0
aI2
aI2
aI0
aI4
aI0
aI0
aI0
aI0
aI12
aI0
aI2
aI8
aI8
aI0
aI2
aI0
aI0
aI2
aI2
aI4
aI0
aI0
aI2
aI0
aI0
aI0
aI0
aI0
aI0
aI0
aI0
aI2
aI4
aI0
aI0
aI0
aI0
aI2
aI2
aI2
aI2
aI0
aI0
aI0
aI0
aI0
aI0
aI0
aI0
aI0
aI0
aI0
aI2
aI2
aI0
aI0
aI0
aI2
aI4
aI0
aI4
aI0
aI0
aI2
aI0
aI0
aI0
aI4
aI0
aI0
aI6
aI14
aI2
aI0
aI6
aI2
aI0
aI0
aI2
aI0
aI8
aI0
aI0
aI0
aI0
aI0
aI0
aI4
aI0
aI4
aI0
aI0
aI2
aI0
aI0
aI0
aI16
aI2
aI2
aI0
aI0
aI2
aI0
aI0
aI0
aI0
aI0
aI0
aI4
aI0
aI10
aI2
aI0
aI0
aI0
aI2
aI0
aI0
aI2
aI4
aI0
aI2
aI0
aI4
aI0
aI0
aI0
aI0
aI0
aI2
aI0
aI0
aI0
aI4
aI6
aI0
aI0
aI4
aI0
aI0
aI0
aI0
aI6
aI2
aI0
aI0
aI0
aI2
aI2
aI2
aI8
aI0
aI0
aI0
aI2
aI0
aI0
aI0
aI8
aI8
aI2
aI6
aI0
aI0
aI0
aI2
aI0
aI2
aI2
aI2
aI0
aI0
aI4
aI0
aI0
aI0
aI4
aI0
aI0
aI0
aI4
aI0
aI0
aI0
aI0
aI6
aI0
aI0
aI0
aI8
aI0
aI0
aI0
aI2
aI6
aI0
aI0
aI0
aI0
aI2
aI6
aI10
aI2
aI6
aI0
aI0
aI2
aI0
aI0
aI0
aI4
aI0
aI0
aI0
aI0
aI0
aI0
aI0
aI0
aI0
aI0
aI2
aI0
aI2
aI0
aI10
aI0
aI0
aI2
aI0
aI0
aI6
aI0
aI0
aI8
aI0
aI2
aI0
aI0
aI2
aI4
aI0
aI0
aI2
aI0
aI0
aI0
aI2
aI2
aI4
aI0
aI0
asS'uppercase_words'
p8
(lp9
I0
aI1
aI0
aI0
aI0
aI0
aI0
aI0
aI0
aI0
aI1
aI1
aI0
aI0
aI0
aI0
aI0
aI0
aI0
aI0
aI0
aI0
aI0
aI0
aI0
aI0
aI2
aI0
aI0
aI0
aI0
aI1
aI0
aI0
aI1
aI1
aI0
aI0
aI1
aI0
aI0
aI0
aI0
aI0
aI0
aI2
aI0
aI0
aI0
aI0
aI1
aI0
aI0
aI3
aI0
aI0
aI0
aI0
aI1
aI1
aI1
aI1
aI0
aI0
aI0
aI1
aI0
aI0
aI0
aI0
aI0
aI0
aI1
aI0
aI0
aI0
aI0
aI0
aI0
aI0
aI1
aI1
aI0
aI0
aI0
aI0
aI0
aI1
aI0
aI0
aI0
aI0
aI0
aI0
aI0
aI0
aI0
aI2
aI0
aI0
aI0
aI3
aI1
aI0
aI0
aI0
aI0
aI0
aI0
aI0
aI0
aI0
aI0
aI0
aI0
aI1
aI0
aI1
aI1
aI1
aI0
aI0
aI0
aI1
aI0
aI0
aI0
aI0
aI0
aI0
aI0
aI0
aI0
aI0
aI0
aI0
aI0
aI0
aI0
aI0
aI0
aI1
aI2
aI0
aI0
aI2
aI0
aI0
aI0
aI0
aI0
aI0
aI2
aI2
aI0
aI0
aI0
aI0
aI1
aI4
aI0
aI0
aI0
aI0
aI0
aI0
aI0
aI16
aI0
aI0
aI0
aI0
aI0
aI0
aI1
aI2
aI0
aI2
aI0
aI0
aI0
aI0
aI0
aI0
aI1
aI1
aI0
aI0
aI0
aI0
aI0
aI0
aI0
aI0
aI0
aI1
aI2
aI0
aI0
aI0
aI0
aI0
aI0
aI0
aI0
aI0
aI4
aI0
aI0
aI2
aI0
aI0
aI0
aI0
aI0
aI0
aI0
aI0
aI0
aI1
aI0
aI0
aI0
aI0
aI0
aI0
aI0
aI1
aI0
aI0
aI0
aI0
aI1
aI0
aI1
aI0
aI0
aI0
aI0
aI0
aI0
aI0
aI0
aI1
aI0
aI0
aI0
aI2
aI0
aI0
aI0
aI0
aI0
aI0
aI3
aI0
aI0
aI0
aI0
aI0
aI0
aI0
aI0
aI1
aI0
aI0
aI1
aI0
aI0
aI0
aI0
aI0
aI0
aI0
aI0
aI0
aI0
aI0
aI0
aI0
aI0
aI0
aI0
aI0
aI0
aI0
aI0
aI0
aI1
aI0
aI0
aI0
aI0
aI1
aI0
aI0
aI0
aI0
aI0
aI0
asS'negative_words'
p10
(lp11
I3
aI1
aI0
aI0
aI0
aI1
aI0
aI2
aI0
aI1
aI0
aI1
aI1
aI1
aI1
aI1
aI0
aI1
aI1
aI0
aI0
aI1
aI0
aI1
aI0
aI0
aI0
aI0
aI1
aI1
aI4
aI3
aI1
aI1
aI0
aI1
aI0
aI0
aI2
aI1
aI0
aI0
aI1
aI1
aI0
aI0
aI1
aI1
aI1
aI1
aI1
aI1
aI1
aI0
aI0
aI1
aI2
aI0
aI1
aI0
aI0
aI0
aI1
aI1
aI0
aI0
aI1
aI0
aI1
aI1
aI0
aI2
aI1
aI1
aI0
aI0
aI1
aI1
aI0
aI0
aI1
aI0
aI0
aI0
aI0
aI0
aI2
aI1
aI1
aI0
aI0
aI1
aI1
aI0
aI2
aI1
aI0
aI0
aI0
aI1
aI0
aI0
aI0
aI0
aI1
aI2
aI0
aI1
aI3
aI1
aI1
aI2
aI1
aI0
aI0
aI0
aI2
aI1
aI1
aI4
aI0
aI1
aI0
aI0
aI3
aI1
aI1
aI0
aI0
aI0
aI0
aI1
aI0
aI1
aI0
aI0
aI0
aI0
aI0
aI0
aI0
aI2
aI1
aI0
aI4
aI1
aI2
aI0
aI2
aI2
aI0
aI0
aI1
aI0
aI0
aI1
aI0
aI0
aI0
aI1
aI1
aI1
aI0
aI1
aI0
aI1
aI0
aI0
aI2
aI0
aI0
aI0
aI1
aI0
aI0
aI1
aI0
aI1
aI1
aI1
aI1
aI1
aI2
aI0
aI0
aI0
aI1
aI1
aI0
aI0
aI1
aI2
aI0
aI2
aI1
aI1
aI0
aI1
aI0
aI2
aI2
aI0
aI1
aI0
aI0
aI0
aI2
aI2
aI0
aI3
aI0
aI0
aI0
aI1
aI0
aI1
aI1
aI2
aI0
aI0
aI1
aI1
aI0
aI0
aI0
aI1
aI1
aI0
aI1
aI0
aI1
aI1
aI0
aI2
aI0
aI1
aI0
aI0
aI0
aI3
aI1
aI0
aI3
aI1
aI1
aI0
aI1
aI1
aI0
aI0
aI3
aI0
aI1
aI1
aI0
aI1
aI1
aI2
aI1
aI0
aI2
aI1
aI0
aI1
aI1
aI0
aI0
aI0
aI1
aI0
aI1
aI2
aI1
aI1
aI1
aI0
aI1
aI2
aI1
aI0
aI0
aI0
aI1
aI0
aI2
aI0
aI0
aI0
aI0
aI1
aI0
aI1
aI1
aI0
aI0
aI0
aI2
aI0
aI1
aI0
asS'positive_words'
p12
(lp13
I0
aI0
aI2
aI0
aI3
aI2
aI1
aI2
aI1
aI3
aI1
aI0
aI0
aI0
aI0
aI3
aI3
aI4
aI1
aI0
aI1
aI1
aI1
aI0
aI1
aI1
aI0
aI0
aI0
aI2
aI2
aI0
aI1
aI0
aI0
aI0
aI1
aI3
aI1
aI1
aI0
aI2
aI0
aI0
aI2
aI0
aI2
aI0
aI0
aI0
aI1
aI2
aI0
aI2
aI1
aI0
aI1
aI1
aI1
aI0
aI0
aI0
aI0
aI0
aI0
aI0
aI0
aI0
aI0
aI0
aI1
aI0
aI0
aI0
aI1
aI2
aI2
aI0
aI3
aI1
aI2
aI1
aI0
aI0
aI0
aI1
aI2
aI1
aI2
aI2
aI3
aI1
aI2
aI0
aI2
aI2
aI0
aI2
aI2
aI1
aI0
aI0
aI3
aI1
aI0
aI0
aI0
aI0
aI2
aI1
aI0
aI1
aI1
aI0
aI2
aI0
aI0
aI2
aI0
aI1
aI0
aI2
aI0
aI1
aI4
aI2
aI1
aI1
aI0
aI0
aI0
aI0
aI1
aI2
aI0
aI1
aI0
aI0
aI2
aI1
aI3
aI0
aI1
aI1
aI2
aI0
aI0
aI1
aI0
aI0
aI1
aI1
aI0
aI1
aI0
aI2
aI1
aI1
aI0
aI1
aI1
aI1
aI1
aI1
aI0
aI0
aI3
aI0
aI0
aI0
aI1
aI0
aI0
aI0
aI1
aI1
aI0
aI0
aI1
aI0
aI0
aI0
aI1
aI1
aI0
aI0
aI0
aI1
aI0
aI1
aI0
aI2
aI1
aI1
aI2
aI1
aI2
aI1
aI0
aI3
aI1
aI0
aI0
aI1
aI2
aI0
aI3
aI0
aI0
aI2
aI1
aI1
aI1
aI0
aI1
aI0
aI0
aI1
aI1
aI1
aI0
aI0
aI0
aI1
aI1
aI1
aI2
aI1
aI0
aI0
aI0
aI0
aI0
aI0
aI2
aI1
aI2
aI3
aI1
aI1
aI0
aI1
aI1
aI1
aI0
aI2
aI1
aI2
aI2
aI0
aI3
aI2
aI1
aI0
aI0
aI1
aI0
aI1
aI0
aI1
aI1
aI0
aI0
aI0
aI0
aI3
aI1
aI1
aI1
aI2
aI0
aI2
aI0
aI0
aI1
aI0
aI1
aI3
aI1
aI1
aI1
aI0
aI1
aI1
aI1
aI1
aI0
aI0
aI1
aI0
aI0
aI1
aI1
aI0
aI1
aI0
aI2
aI0
aI1
aI0
asS'adjectives'
p14
(lp15
I1
aI0
aI4
aI0
aI1
aI1
aI0
aI3
aI2
aI1
aI0
aI0
aI0
aI2
aI0
aI1
aI0
aI2
aI1
aI2
aI1
aI2
aI1
aI4
aI1
aI1
aI0
aI0
aI1
aI3
aI3
aI1
aI0
aI1
aI0
aI1
aI0
aI1
aI1
aI2
aI1
aI0
aI1
aI1
aI1
aI1
aI0
aI0
aI4
aI1
aI3
aI0
aI0
aI2
aI0
aI0
aI2
aI0
aI2
aI0
aI0
aI0
aI1
aI0
aI0
aI2
aI2
aI0
aI0
aI1
aI0
aI1
aI1
aI1
aI2
aI3
aI2
aI0
aI0
aI1
aI1
aI0
aI0
aI1
aI2
aI1
aI2
aI2
aI0
aI2
aI0
aI2
aI1
aI1
aI2
aI0
aI2
aI0
aI2
aI1
aI0
aI0
aI1
aI1
aI0
aI0
aI1
aI0
aI4
aI1
aI0
aI0
aI1
aI3
aI2
aI0
aI2
aI1
aI0
aI0
aI1
aI2
aI1
aI2
aI2
aI0
aI2
aI0
aI1
aI0
aI0
aI1
aI0
aI1
aI1
aI2
aI0
aI1
aI1
aI1
aI3
aI2
aI2
aI0
aI1
aI2
aI3
aI3
aI2
aI1
aI0
aI1
aI2
aI1
aI1
aI0
aI1
aI1
aI0
aI2
aI1
aI0
aI1
aI0
aI4
aI0
aI2
aI1
aI0
aI2
aI1
aI0
aI1
aI0
aI2
aI0
aI1
aI1
aI0
aI0
aI0
aI0
aI1
aI0
aI2
aI1
aI0
aI2
aI0
aI1
aI1
aI1
aI1
aI4
aI1
aI1
aI1
aI1
aI0
aI2
aI0
aI2
aI2
aI1
aI1
aI0
aI2
aI1
aI3
aI1
aI1
aI1
aI0
aI0
aI2
aI4
aI2
aI4
aI1
aI0
aI1
aI1
aI2
aI0
aI0
aI1
aI1
aI1
aI0
aI2
aI0
aI1
aI2
aI3
aI0
aI2
aI1
aI3
aI0
aI0
aI1
aI0
aI1
aI2
aI2
aI1
aI0
aI1
aI0
aI3
aI3
aI0
aI0
aI3
aI3
aI2
aI3
aI1
aI3
aI6
aI1
aI0
aI1
aI0
aI1
aI1
aI0
aI1
aI2
aI2
aI2
aI1
aI0
aI0
aI1
aI0
aI3
aI1
aI2
aI3
aI2
aI1
aI0
aI0
aI3
aI0
aI2
aI0
aI1
aI1
aI0
aI2
aI2
aI2
aI2
aI0
aI1
aI2
aI2
aI1
asS'words'
p16
(lp17
I17
aI13
aI26
aI13
aI20
aI22
aI11
aI25
aI28
aI26
aI17
aI10
aI10
aI23
aI6
aI20
aI22
aI13
aI19
aI20
aI9
aI23
aI15
aI15
aI11
aI29
aI32
aI10
aI6
aI28
aI21
aI24
aI13
aI24
aI23
aI22
aI15
aI22
aI21
aI27
aI20
aI22
aI11
aI27
aI23
aI9
aI15
aI8
aI21
aI10
aI21
aI23
aI14
aI24
aI25
aI20
aI19
aI6
aI24
aI18
aI17
aI29
aI29
aI12
aI10
aI23
aI28
aI13
aI5
aI23
aI20
aI12
aI23
aI24
aI25
aI23
aI26
aI19
aI18
aI10
aI29
aI25
aI18
aI16
aI13
aI29
aI26
aI19
aI26
aI18
aI17
aI17
aI15
aI12
aI24
aI20
aI17
aI15
aI15
aI27
aI8
aI8
aI26
aI29
aI9
aI26
aI17
aI13
aI19
aI24
aI6
aI18
aI13
aI21
aI16
aI8
aI20
aI23
aI10
aI22
aI25
aI26
aI12
aI13
aI19
aI23
aI13
aI11
aI22
aI2
aI3
aI29
aI24
aI20
aI27
aI12
aI6
aI22
aI7
aI13
aI24
aI28
aI15
aI22
aI23
aI21
aI13
aI10
aI18
aI20
aI8
aI26
aI27
aI17
aI14
aI14
aI20
aI11
aI12
aI24
aI21
aI21
aI11
aI18
aI24
aI9
aI21
aI17
aI18
aI15
aI28
aI22
aI10
aI18
aI22
aI19
aI23
aI17
aI15
aI18
aI23
aI14
aI19
aI19
aI23
aI17
aI11
aI17
aI11
aI13
aI27
aI31
aI26
aI24
aI26
aI21
aI22
aI11
aI19
aI28
aI12
aI21
aI19
aI9
aI16
aI19
aI30
aI15
aI16
aI24
aI17
aI21
aI12
aI21
aI14
aI28
aI27
aI20
aI22
aI10
aI23
aI22
aI10
aI26
aI15
aI12
aI18
aI18
aI16
aI22
aI28
aI11
aI24
aI24
aI12
aI24
aI30
aI16
aI7
aI21
aI17
aI15
aI15
aI21
aI23
aI28
aI22
aI17
aI21
aI27
aI16
aI20
aI27
aI18
aI32
aI26
aI26
aI22
aI22
aI25
aI9
aI25
aI17
aI22
aI26
aI20
aI21
aI34
aI28
aI23
aI7
aI33
aI10
aI31
aI9
aI6
aI13
aI18
aI20
aI20
aI15
aI6
aI16
aI13
aI21
aI11
aI21
aI11
aI17
aI20
aI5
aI18
aI12
aI25
aI22
aI13
aI26
aI22
aI24
aI24
as.