(dp1
S'negative_words_hashtags'
p2
(lp3
I0
aI0
aI0
aI0
aI0
aI0
aI0
aI0
aI0
aI0
aI0
aI0
aI0
aI0
aI0
aI0
aI0
aI0
aI0
aI0
aI0
aI0
aI0
aI0
aI0
aI0
aI0
aI0
aI0
aI0
aI0
aI0
aI0
aI0
aI0
aI0
aI0
aI0
aI0
aI0
aI0
aI0
aI0
aI0
aI0
aI0
aI0
aI0
aI0
aI0
aI0
aI0
aI0
aI0
aI0
aI0
aI0
aI0
aI0
aI0
aI0
aI0
aI0
aI0
aI0
aI0
aI0
aI0
aI0
aI0
aI0
aI0
aI0
aI0
aI0
aI0
aI0
aI0
aI0
aI0
aI0
aI0
aI0
aI0
aI0
aI0
aI0
aI0
aI0
aI0
aI0
aI0
aI0
aI0
aI0
aI0
aI0
aI0
aI0
aI0
aI0
aI0
aI0
aI0
aI0
aI0
aI0
aI0
aI0
aI0
aI0
aI0
aI0
aI0
aI0
aI0
aI0
aI0
aI0
aI0
aI0
aI0
aI0
aI0
aI0
aI0
aI0
aI0
aI0
aI0
aI0
aI0
aI0
aI0
aI0
aI0
aI0
aI0
aI0
aI0
aI0
aI0
aI0
aI0
aI0
aI0
aI0
aI0
aI0
aI0
aI0
aI0
aI0
aI0
aI0
aI0
aI0
aI0
aI0
aI0
aI0
aI0
aI0
aI0
aI0
aI0
aI0
aI0
aI0
aI0
aI0
aI0
aI0
aI0
aI0
aI0
aI0
aI0
aI0
aI0
aI0
aI0
aI0
aI0
aI0
aI0
aI0
aI0
aI0
aI0
aI0
aI0
aI0
aI0
aI0
aI0
aI0
aI0
aI0
aI0
aI0
aI0
aI0
aI0
aI0
aI0
aI0
aI0
aI0
aI0
aI0
aI0
aI0
aI0
aI0
aI0
aI0
aI0
asS'positive_words_hashtags'
p4
(lp5
I0
aI0
aI0
aI0
aI0
aI0
aI0
aI0
aI0
aI0
aI0
aI0
aI0
aI0
aI0
aI0
aI0
aI0
aI0
aI0
aI0
aI0
aI0
aI0
aI0
aI0
aI0
aI0
aI0
aI0
aI0
aI0
aI0
aI0
aI0
aI0
aI0
aI0
aI0
aI0
aI0
aI0
aI0
aI0
aI1
aI0
aI0
aI0
aI0
aI0
aI0
aI0
aI0
aI0
aI0
aI0
aI0
aI0
aI0
aI0
aI0
aI0
aI0
aI0
aI0
aI0
aI0
aI0
aI0
aI0
aI0
aI0
aI0
aI0
aI0
aI0
aI0
aI0
aI0
aI0
aI0
aI0
aI0
aI0
aI0
aI0
aI0
aI0
aI0
aI0
aI0
aI0
aI0
aI0
aI0
aI0
aI0
aI0
aI0
aI0
aI0
aI0
aI0
aI0
aI0
aI0
aI0
aI0
aI0
aI0
aI0
aI0
aI0
aI0
aI0
aI0
aI0
aI0
aI0
aI0
aI0
aI0
aI0
aI0
aI0
aI0
aI0
aI0
aI0
aI0
aI0
aI0
aI0
aI0
aI0
aI0
aI0
aI0
aI0
aI0
aI0
aI0
aI0
aI0
aI0
aI0
aI0
aI0
aI0
aI0
aI0
aI0
aI0
aI0
aI0
aI0
aI0
aI1
aI0
aI0
aI0
aI0
aI0
aI0
aI0
aI0
aI0
aI0
aI0
aI0
aI0
aI0
aI0
aI0
aI0
aI0
aI0
aI0
aI0
aI0
aI0
aI0
aI0
aI0
aI0
aI0
aI0
aI0
aI0
aI0
aI0
aI0
aI0
aI0
aI0
aI0
aI0
aI0
aI0
aI0
aI0
aI0
aI0
aI0
aI0
aI0
aI0
aI0
aI0
aI0
aI0
aI0
aI0
aI0
aI0
aI0
aI0
aI0
asS'special_punctuation'
p6
(lp7
I2
aI0
aI0
aI2
aI0
aI0
aI2
aI6
aI0
aI0
aI6
aI0
aI2
aI0
aI4
aI0
aI0
aI0
aI0
aI0
aI6
aI4
aI2
aI0
aI2
aI6
aI2
aI0
aI0
aI0
aI2
aI0
aI4
aI0
aI0
aI0
aI0
aI0
aI0
aI0
aI2
aI0
aI2
aI0
aI0
aI0
aI6
aI0
aI8
aI6
aI6
aI0
aI2
aI2
aI0
aI0
aI0
aI0
aI2
aI0
aI0
aI2
aI12
aI0
aI2
aI2
aI0
aI6
aI8
aI0
aI8
aI0
aI0
aI8
aI2
aI0
aI2
aI0
aI2
aI0
aI2
aI0
aI0
aI0
aI0
aI8
aI6
aI0
aI0
aI2
aI0
aI0
aI0
aI4
aI0
aI4
aI12
aI0
aI0
aI2
aI2
aI2
aI0
aI0
aI0
aI0
aI2
aI2
aI2
aI0
aI0
aI4
aI0
aI2
aI2
aI0
aI2
aI0
aI10
aI0
aI0
aI4
aI0
aI0
aI4
aI0
aI0
aI0
aI0
aI0
aI0
aI2
aI2
aI0
aI2
aI0
aI4
aI0
aI0
aI0
aI0
aI4
aI2
aI2
aI0
aI8
aI4
aI0
aI0
aI4
aI2
aI0
aI0
aI0
aI0
aI0
aI0
aI0
aI2
aI0
aI4
aI2
aI0
aI0
aI10
aI0
aI0
aI0
aI2
aI0
aI0
aI0
aI4
aI0
aI0
aI2
aI0
aI4
aI2
aI6
aI0
aI4
aI0
aI0
aI0
aI0
aI2
aI2
aI2
aI0
aI0
aI0
aI0
aI4
aI2
aI0
aI0
aI0
aI2
aI0
aI0
aI12
aI0
aI0
aI0
aI0
aI4
aI2
aI0
aI2
aI2
aI6
aI0
aI0
aI0
aI2
aI0
aI0
asS'uppercase_words'
p8
(lp9
I4
aI0
aI0
aI0
aI0
aI5
aI0
aI0
aI0
aI0
aI0
aI0
aI0
aI0
aI0
aI0
aI0
aI0
aI0
aI0
aI0
aI0
aI0
aI0
aI0
aI0
aI15
aI0
aI0
aI0
aI0
aI0
aI0
aI0
aI0
aI0
aI0
aI0
aI0
aI0
aI0
aI2
aI0
aI1
aI1
aI0
aI0
aI0
aI0
aI2
aI2
aI0
aI0
aI0
aI0
aI0
aI0
aI0
aI0
aI0
aI1
aI0
aI3
aI0
aI0
aI0
aI0
aI0
aI0
aI0
aI1
aI0
aI0
aI1
aI0
aI1
aI0
aI0
aI1
aI0
aI0
aI0
aI0
aI0
aI0
aI0
aI1
aI0
aI3
aI1
aI0
aI0
aI0
aI0
aI0
aI1
aI0
aI0
aI0
aI0
aI1
aI2
aI0
aI0
aI0
aI1
aI0
aI0
aI0
aI0
aI5
aI0
aI0
aI0
aI1
aI0
aI0
aI0
aI9
aI0
aI0
aI1
aI0
aI1
aI1
aI1
aI0
aI0
aI1
aI0
aI0
aI1
aI0
aI0
aI0
aI0
aI0
aI0
aI0
aI0
aI0
aI0
aI0
aI0
aI0
aI1
aI0
aI1
aI0
aI0
aI0
aI0
aI0
aI0
aI0
aI0
aI0
aI0
aI1
aI0
aI1
aI1
aI0
aI0
aI0
aI0
aI0
aI0
aI0
aI0
aI1
aI0
aI0
aI0
aI2
aI1
aI0
aI0
aI1
aI2
aI0
aI0
aI0
aI0
aI0
aI0
aI1
aI0
aI0
aI0
aI0
aI0
aI0
aI1
aI0
aI0
aI0
aI0
aI0
aI2
aI0
aI0
aI0
aI0
aI1
aI0
aI0
aI1
aI0
aI2
aI2
aI0
aI0
aI0
aI0
aI2
aI3
aI0
asS'negative_words'
p10
(lp11
I3
aI1
aI1
aI1
aI1
aI0
aI1
aI0
aI1
aI0
aI1
aI2
aI1
aI0
aI1
aI0
aI1
aI0
aI1
aI0
aI0
aI1
aI0
aI1
aI0
aI0
aI0
aI1
aI0
aI0
aI0
aI0
aI1
aI1
aI0
aI2
aI1
aI0
aI1
aI0
aI1
aI0
aI0
aI0
aI0
aI1
aI0
aI0
aI1
aI0
aI0
aI3
aI0
aI0
aI1
aI0
aI0
aI0
aI1
aI1
aI0
aI2
aI1
aI1
aI0
aI0
aI0
aI1
aI1
aI0
aI1
aI0
aI0
aI1
aI0
aI0
aI0
aI1
aI0
aI0
aI0
aI0
aI0
aI0
aI0
aI0
aI0
aI0
aI1
aI1
aI2
aI0
aI1
aI0
aI0
aI0
aI0
aI0
aI0
aI0
aI0
aI0
aI0
aI0
aI0
aI0
aI0
aI0
aI0
aI0
aI1
aI1
aI2
aI0
aI0
aI0
aI1
aI0
aI0
aI1
aI1
aI0
aI0
aI0
aI0
aI0
aI0
aI2
aI0
aI1
aI0
aI0
aI0
aI0
aI0
aI1
aI1
aI0
aI0
aI1
aI0
aI0
aI0
aI0
aI2
aI1
aI0
aI1
aI0
aI0
aI0
aI0
aI0
aI0
aI0
aI1
aI0
aI0
aI0
aI0
aI0
aI2
aI0
aI0
aI2
aI0
aI0
aI0
aI0
aI0
aI0
aI0
aI0
aI1
aI0
aI0
aI0
aI2
aI1
aI1
aI1
aI0
aI0
aI0
aI0
aI0
aI0
aI2
aI0
aI1
aI1
aI0
aI0
aI0
aI0
aI0
aI0
aI0
aI0
aI0
aI0
aI0
aI0
aI0
aI0
aI0
aI0
aI1
aI0
aI0
aI0
aI0
aI0
aI3
aI0
aI0
aI2
aI0
asS'positive_words'
p12
(lp13
I1
aI2
aI1
aI1
aI0
aI1
aI0
aI0
aI3
aI0
aI1
aI1
aI1
aI2
aI0
aI0
aI0
aI0
aI2
aI0
aI2
aI2
aI1
aI1
aI4
aI1
aI2
aI2
aI1
aI0
aI2
aI0
aI0
aI0
aI0
aI1
aI0
aI0
aI2
aI0
aI4
aI1
aI0
aI1
aI1
aI2
aI0
aI0
aI1
aI1
aI1
aI1
aI0
aI1
aI0
aI1
aI1
aI1
aI1
aI0
aI0
aI1
aI0
aI1
aI1
aI0
aI2
aI0
aI0
aI0
aI1
aI1
aI0
aI1
aI1
aI0
aI0
aI1
aI0
aI0
aI3
aI0
aI2
aI1
aI1
aI2
aI1
aI2
aI2
aI0
aI0
aI1
aI1
aI0
aI3
aI0
aI2
aI1
aI1
aI1
aI3
aI0
aI1
aI0
aI1
aI2
aI2
aI1
aI0
aI0
aI0
aI2
aI0
aI2
aI0
aI0
aI3
aI0
aI3
aI0
aI3
aI0
aI1
aI1
aI0
aI0
aI0
aI0
aI1
aI2
aI2
aI1
aI2
aI0
aI0
aI0
aI1
aI4
aI0
aI0
aI2
aI0
aI1
aI0
aI0
aI4
aI2
aI0
aI3
aI1
aI0
aI0
aI0
aI0
aI1
aI1
aI0
aI1
aI3
aI0
aI3
aI0
aI0
aI1
aI0
aI1
aI2
aI1
aI2
aI1
aI4
aI1
aI3
aI0
aI1
aI1
aI0
aI0
aI0
aI1
aI1
aI1
aI1
aI0
aI2
aI2
aI1
aI0
aI0
aI0
aI0
aI1
aI2
aI1
aI1
aI0
aI1
aI0
aI2
aI2
aI1
aI0
aI3
aI1
aI0
aI1
aI2
aI0
aI0
aI1
aI1
aI0
aI1
aI0
aI0
aI1
aI0
aI3
asS'adjectives'
p14
(lp15
I1
aI0
aI0
aI4
aI2
aI0
aI2
aI1
aI2
aI1
aI1
aI0
aI1
aI0
aI1
aI0
aI0
aI0
aI2
aI1
aI1
aI1
aI1
aI0
aI3
aI0
aI1
aI1
aI1
aI0
aI2
aI1
aI1
aI3
aI1
aI4
aI0
aI0
aI0
aI0
aI3
aI1
aI2
aI1
aI0
aI2
aI0
aI1
aI1
aI2
aI0
aI0
aI1
aI2
aI0
aI1
aI1
aI1
aI2
aI1
aI2
aI1
aI1
aI4
aI0
aI0
aI2
aI0
aI0
aI0
aI3
aI2
aI1
aI1
aI0
aI0
aI0
aI0
aI0
aI0
aI2
aI1
aI2
aI0
aI0
aI1
aI1
aI0
aI1
aI3
aI0
aI1
aI0
aI0
aI0
aI1
aI1
aI0
aI0
aI0
aI2
aI0
aI2
aI0
aI1
aI1
aI0
aI3
aI3
aI1
aI1
aI1
aI0
aI2
aI1
aI0
aI1
aI1
aI1
aI4
aI3
aI0
aI1
aI1
aI2
aI0
aI1
aI2
aI1
aI0
aI3
aI1
aI3
aI0
aI1
aI3
aI0
aI2
aI0
aI1
aI1
aI3
aI1
aI0
aI2
aI0
aI1
aI1
aI0
aI1
aI1
aI1
aI2
aI2
aI3
aI0
aI1
aI1
aI3
aI0
aI2
aI0
aI1
aI0
aI0
aI0
aI3
aI1
aI2
aI1
aI1
aI0
aI3
aI2
aI0
aI0
aI0
aI4
aI0
aI1
aI1
aI5
aI2
aI1
aI1
aI1
aI3
aI2
aI2
aI0
aI1
aI1
aI1
aI1
aI0
aI1
aI2
aI0
aI1
aI0
aI1
aI0
aI2
aI2
aI0
aI2
aI2
aI1
aI1
aI2
aI1
aI1
aI0
aI1
aI0
aI1
aI0
aI2
asS'words'
p16
(lp17
I22
aI19
aI10
aI21
aI16
aI15
aI27
aI24
aI23
aI14
aI21
aI12
aI26
aI28
aI16
aI14
aI19
aI20
aI26
aI17
aI27
aI19
aI18
aI9
aI17
aI15
aI29
aI23
aI15
aI22
aI14
aI14
aI15
aI25
aI25
aI27
aI21
aI11
aI21
aI23
aI26
aI16
aI13
aI21
aI27
aI25
aI9
aI14
aI15
aI18
aI9
aI28
aI15
aI17
aI11
aI23
aI26
aI25
aI25
aI13
aI16
aI29
aI29
aI25
aI9
aI11
aI24
aI7
aI21
aI14
aI32
aI31
aI14
aI21
aI6
aI9
aI18
aI10
aI5
aI18
aI20
aI29
aI17
aI12
aI13
aI13
aI14
aI25
aI19
aI14
aI14
aI19
aI17
aI9
aI19
aI23
aI11
aI17
aI10
aI14
aI25
aI23
aI19
aI16
aI10
aI25
aI13
aI27
aI21
aI30
aI13
aI22
aI9
aI26
aI7
aI8
aI17
aI8
aI23
aI24
aI22
aI10
aI13
aI19
aI25
aI13
aI28
aI19
aI8
aI15
aI19
aI22
aI17
aI6
aI13
aI27
aI23
aI26
aI7
aI17
aI11
aI27
aI28
aI16
aI26
aI19
aI19
aI8
aI18
aI14
aI13
aI12
aI24
aI15
aI15
aI9
aI8
aI19
aI21
aI20
aI17
aI27
aI21
aI12
aI22
aI11
aI28
aI19
aI25
aI13
aI24
aI12
aI27
aI20
aI11
aI26
aI23
aI19
aI10
aI24
aI19
aI23
aI24
aI11
aI18
aI19
aI21
aI20
aI18
aI18
aI16
aI10
aI16
aI13
aI12
aI18
aI17
aI14
aI20
aI15
aI12
aI16
aI24
aI19
aI9
aI19
aI21
aI26
aI11
aI28
aI29
aI23
aI8
aI14
aI17
aI32
aI13
aI23
as.