(dp1
S'negative_words_hashtags'
p2
(lp3
I0
aI0
aI0
aI0
aI0
aI0
aI0
aI0
aI0
aI0
aI0
aI0
aI0
aI0
aI0
aI0
aI0
aI0
aI0
aI0
aI0
aI0
aI0
aI0
aI0
aI0
aI0
aI0
aI0
aI0
aI0
aI0
aI0
aI0
aI0
aI0
aI0
aI0
aI0
aI0
aI0
aI0
aI0
aI0
aI0
aI0
aI0
aI0
aI0
aI0
aI0
aI0
aI0
aI0
aI0
aI0
aI0
aI0
aI0
aI0
aI0
aI0
aI0
aI0
aI0
aI0
aI0
aI0
aI0
aI0
aI0
aI0
aI0
aI0
aI0
aI0
aI0
aI0
aI0
aI0
aI0
aI0
aI0
aI0
aI0
aI0
aI0
aI0
aI0
aI0
aI0
aI0
aI0
aI0
aI0
aI0
aI0
aI0
aI0
aI0
aI0
aI0
aI0
aI0
aI0
aI0
aI0
aI0
aI0
aI0
aI0
aI0
aI0
aI0
aI0
aI0
aI0
aI0
aI0
aI0
aI0
aI0
aI0
aI0
aI0
aI0
aI0
aI0
aI0
aI0
aI0
aI0
aI0
aI0
aI0
aI0
aI0
aI0
aI0
aI0
aI0
aI0
aI0
aI0
aI0
aI0
aI0
aI0
aI0
aI0
aI0
aI0
aI0
aI0
aI0
asS'positive_words_hashtags'
p4
(lp5
I0
aI0
aI0
aI0
aI0
aI0
aI0
aI0
aI0
aI0
aI0
aI0
aI0
aI0
aI0
aI0
aI0
aI0
aI0
aI0
aI0
aI0
aI0
aI0
aI0
aI0
aI0
aI0
aI0
aI0
aI0
aI0
aI0
aI0
aI0
aI0
aI0
aI0
aI0
aI0
aI0
aI0
aI0
aI0
aI0
aI0
aI0
aI0
aI0
aI0
aI0
aI0
aI0
aI0
aI0
aI0
aI0
aI0
aI0
aI0
aI0
aI0
aI0
aI0
aI0
aI0
aI0
aI0
aI0
aI0
aI0
aI0
aI0
aI0
aI0
aI0
aI0
aI0
aI0
aI0
aI0
aI0
aI0
aI0
aI0
aI0
aI0
aI0
aI0
aI0
aI0
aI0
aI0
aI0
aI0
aI0
aI0
aI0
aI0
aI0
aI0
aI0
aI0
aI0
aI0
aI0
aI0
aI0
aI0
aI0
aI0
aI0
aI0
aI0
aI0
aI0
aI0
aI0
aI0
aI0
aI0
aI0
aI0
aI0
aI0
aI0
aI0
aI0
aI0
aI0
aI0
aI0
aI0
aI0
aI0
aI0
aI0
aI0
aI0
aI0
aI0
aI0
aI0
aI0
aI0
aI0
aI0
aI0
aI0
aI0
aI0
aI0
aI0
aI0
aI0
asS'special_punctuation'
p6
(lp7
I0
aI2
aI0
aI0
aI0
aI0
aI0
aI0
aI0
aI4
aI0
aI6
aI2
aI0
aI14
aI0
aI0
aI0
aI0
aI4
aI0
aI0
aI0
aI2
aI0
aI2
aI0
aI4
aI0
aI0
aI0
aI6
aI12
aI2
aI0
aI2
aI2
aI2
aI0
aI0
aI0
aI0
aI0
aI0
aI0
aI2
aI0
aI10
aI0
aI0
aI0
aI2
aI0
aI2
aI0
aI4
aI4
aI4
aI0
aI0
aI0
aI0
aI2
aI2
aI0
aI4
aI0
aI0
aI4
aI4
aI2
aI0
aI2
aI0
aI0
aI0
aI0
aI4
aI10
aI0
aI4
aI0
aI2
aI22
aI0
aI0
aI0
aI0
aI0
aI0
aI0
aI0
aI0
aI4
aI2
aI4
aI0
aI0
aI0
aI0
aI0
aI4
aI2
aI0
aI0
aI2
aI0
aI0
aI2
aI0
aI0
aI6
aI0
aI0
aI16
aI4
aI4
aI0
aI0
aI0
aI0
aI2
aI2
aI0
aI0
aI0
aI0
aI0
aI0
aI0
aI0
aI2
aI2
aI0
aI0
aI2
aI2
aI2
aI0
aI2
aI0
aI0
aI0
aI0
aI0
aI2
aI2
aI0
aI0
aI0
aI0
aI10
aI8
aI0
aI0
asS'uppercase_words'
p8
(lp9
I1
aI0
aI1
aI2
aI2
aI0
aI2
aI2
aI0
aI0
aI0
aI0
aI0
aI0
aI14
aI1
aI0
aI0
aI0
aI0
aI1
aI0
aI1
aI0
aI0
aI0
aI0
aI4
aI0
aI0
aI0
aI1
aI0
aI0
aI0
aI1
aI0
aI0
aI1
aI0
aI0
aI0
aI0
aI0
aI1
aI0
aI0
aI1
aI0
aI0
aI0
aI0
aI0
aI0
aI0
aI1
aI1
aI0
aI0
aI2
aI0
aI2
aI0
aI0
aI0
aI0
aI0
aI1
aI0
aI0
aI0
aI0
aI0
aI0
aI0
aI0
aI0
aI0
aI0
aI0
aI1
aI1
aI0
aI10
aI0
aI8
aI0
aI0
aI0
aI0
aI0
aI1
aI0
aI0
aI0
aI0
aI0
aI0
aI0
aI2
aI0
aI0
aI0
aI0
aI0
aI3
aI2
aI0
aI0
aI0
aI0
aI1
aI0
aI0
aI0
aI0
aI0
aI1
aI0
aI1
aI0
aI0
aI0
aI0
aI0
aI1
aI0
aI0
aI2
aI3
aI0
aI0
aI0
aI0
aI0
aI1
aI1
aI1
aI0
aI0
aI0
aI0
aI1
aI1
aI0
aI3
aI1
aI0
aI0
aI2
aI0
aI0
aI0
aI0
aI0
asS'negative_words'
p10
(lp11
I1
aI1
aI1
aI1
aI2
aI2
aI2
aI1
aI2
aI0
aI0
aI0
aI1
aI0
aI2
aI0
aI1
aI0
aI0
aI2
aI3
aI1
aI0
aI2
aI0
aI1
aI0
aI1
aI3
aI0
aI0
aI1
aI0
aI1
aI0
aI1
aI1
aI2
aI1
aI0
aI0
aI0
aI0
aI0
aI1
aI1
aI1
aI0
aI0
aI1
aI0
aI0
aI0
aI1
aI0
aI1
aI1
aI1
aI0
aI0
aI0
aI1
aI0
aI0
aI0
aI1
aI1
aI2
aI0
aI1
aI2
aI0
aI1
aI0
aI0
aI0
aI0
aI0
aI1
aI0
aI1
aI0
aI0
aI0
aI0
aI0
aI0
aI0
aI1
aI0
aI0
aI0
aI0
aI0
aI0
aI1
aI0
aI0
aI1
aI0
aI0
aI0
aI0
aI1
aI0
aI2
aI2
aI0
aI0
aI0
aI0
aI0
aI1
aI0
aI0
aI0
aI1
aI0
aI2
aI0
aI0
aI0
aI0
aI0
aI0
aI0
aI0
aI0
aI0
aI0
aI1
aI1
aI0
aI0
aI0
aI0
aI0
aI0
aI1
aI0
aI2
aI0
aI0
aI0
aI0
aI0
aI1
aI1
aI0
aI1
aI1
aI0
aI0
aI1
aI0
asS'positive_words'
p12
(lp13
I0
aI1
aI0
aI1
aI2
aI2
aI0
aI1
aI0
aI1
aI0
aI0
aI2
aI2
aI1
aI0
aI1
aI2
aI0
aI0
aI2
aI0
aI1
aI1
aI0
aI3
aI1
aI0
aI2
aI0
aI0
aI2
aI0
aI0
aI0
aI0
aI2
aI0
aI0
aI0
aI0
aI0
aI1
aI1
aI0
aI1
aI0
aI1
aI1
aI0
aI0
aI0
aI0
aI2
aI1
aI1
aI1
aI1
aI1
aI0
aI1
aI2
aI3
aI2
aI0
aI2
aI1
aI0
aI1
aI1
aI0
aI1
aI0
aI1
aI1
aI2
aI2
aI2
aI0
aI1
aI1
aI0
aI3
aI0
aI1
aI0
aI2
aI0
aI1
aI1
aI1
aI1
aI2
aI0
aI2
aI1
aI2
aI1
aI0
aI3
aI1
aI0
aI1
aI0
aI0
aI0
aI0
aI1
aI1
aI0
aI1
aI3
aI1
aI2
aI3
aI1
aI2
aI1
aI0
aI1
aI2
aI0
aI0
aI2
aI1
aI1
aI1
aI0
aI0
aI2
aI0
aI1
aI1
aI1
aI1
aI0
aI0
aI1
aI3
aI3
aI0
aI4
aI0
aI0
aI1
aI2
aI4
aI3
aI1
aI0
aI1
aI2
aI1
aI1
aI1
asS'adjectives'
p14
(lp15
I1
aI1
aI2
aI1
aI2
aI2
aI3
aI1
aI0
aI2
aI1
aI0
aI2
aI0
aI1
aI0
aI1
aI0
aI0
aI0
aI2
aI0
aI0
aI0
aI0
aI1
aI0
aI0
aI1
aI2
aI1
aI0
aI1
aI0
aI0
aI2
aI1
aI1
aI0
aI0
aI1
aI0
aI4
aI0
aI0
aI1
aI0
aI2
aI0
aI2
aI0
aI0
aI0
aI2
aI0
aI0
aI0
aI3
aI1
aI0
aI1
aI4
aI1
aI1
aI0
aI3
aI0
aI2
aI0
aI2
aI0
aI0
aI1
aI1
aI0
aI1
aI1
aI1
aI0
aI0
aI2
aI0
aI2
aI1
aI0
aI0
aI1
aI2
aI0
aI2
aI0
aI2
aI3
aI1
aI1
aI2
aI2
aI0
aI3
aI0
aI1
aI2
aI3
aI1
aI1
aI0
aI1
aI1
aI0
aI0
aI0
aI1
aI1
aI0
aI1
aI4
aI0
aI1
aI1
aI1
aI1
aI2
aI0
aI4
aI0
aI0
aI1
aI0
aI0
aI2
aI2
aI3
aI0
aI4
aI0
aI1
aI1
aI0
aI1
aI1
aI1
aI1
aI0
aI1
aI1
aI0
aI0
aI3
aI0
aI1
aI3
aI5
aI0
aI1
aI0
asS'words'
p16
(lp17
I20
aI26
aI24
aI21
aI21
aI19
aI17
aI17
aI26
aI16
aI28
aI19
aI19
aI21
aI15
aI8
aI19
aI9
aI8
aI10
aI21
aI16
aI11
aI22
aI8
aI10
aI25
aI16
aI25
aI25
aI21
aI21
aI15
aI24
aI10
aI9
aI17
aI29
aI17
aI4
aI10
aI7
aI25
aI16
aI9
aI26
aI8
aI30
aI11
aI21
aI18
aI9
aI7
aI21
aI6
aI29
aI22
aI18
aI15
aI7
aI22
aI17
aI23
aI8
aI6
aI25
aI23
aI11
aI10
aI19
aI25
aI10
aI14
aI21
aI5
aI20
aI17
aI31
aI14
aI11
aI28
aI22
aI12
aI21
aI10
aI13
aI14
aI14
aI13
aI20
aI10
aI17
aI22
aI16
aI9
aI18
aI28
aI8
aI29
aI18
aI11
aI11
aI22
aI19
aI19
aI21
aI22
aI17
aI19
aI3
aI13
aI16
aI18
aI14
aI16
aI14
aI25
aI17
aI13
aI14
aI22
aI8
aI17
aI25
aI15
aI11
aI11
aI2
aI25
aI20
aI3
aI19
aI19
aI26
aI4
aI6
aI26
aI7
aI19
aI19
aI13
aI23
aI14
aI12
aI18
aI14
aI26
aI26
aI20
aI11
aI21
aI23
aI27
aI18
aI6
as.