(dp1
S'negative_words_hashtags'
p2
(lp3
I0
aI0
aI0
aI0
aI0
aI0
aI0
aI0
aI0
aI0
aI0
aI0
aI0
aI0
aI0
aI0
aI0
aI0
aI0
aI0
aI0
aI0
aI0
aI0
aI0
aI0
aI0
aI0
aI0
aI0
aI0
aI0
aI0
aI0
aI0
aI0
aI1
aI0
aI0
aI0
aI0
aI0
aI0
aI0
aI0
aI0
aI0
aI0
aI0
aI0
aI0
aI0
aI0
aI0
aI0
aI0
aI0
aI0
aI0
aI0
aI0
aI0
aI0
aI0
aI0
aI0
aI0
aI0
aI0
aI0
aI0
aI0
aI0
aI0
aI0
aI0
aI0
aI0
aI0
aI0
aI0
aI0
aI0
aI0
aI0
aI0
aI0
aI0
aI0
aI0
aI0
aI0
aI0
aI0
aI0
aI0
aI0
aI0
aI0
aI0
aI0
aI0
aI0
aI0
aI0
aI0
aI0
aI0
aI0
aI0
aI0
aI0
aI0
aI0
aI0
aI0
aI0
aI0
aI0
aI0
aI0
aI0
aI0
aI0
aI0
aI0
aI0
aI0
aI0
aI0
aI0
aI0
aI0
aI0
aI0
aI0
aI0
aI0
aI0
aI0
aI0
aI0
aI0
aI0
aI1
aI0
aI0
aI0
aI0
aI0
aI0
aI0
aI0
aI0
aI0
aI0
aI0
aI0
aI0
aI0
aI0
aI0
aI0
aI0
aI0
aI0
aI0
aI0
aI0
aI0
aI0
aI0
aI0
aI0
aI0
aI0
aI0
aI0
aI0
aI0
aI0
aI0
aI0
aI0
aI0
aI0
aI0
aI0
aI0
aI0
aI0
aI0
aI0
aI0
aI0
aI0
aI0
aI0
aI0
aI0
aI0
aI0
aI0
aI0
aI0
aI0
aI0
aI0
aI0
aI0
aI0
aI0
aI0
aI0
aI0
aI0
aI0
aI0
aI0
aI0
aI0
aI0
aI0
aI0
aI0
aI0
aI0
aI0
aI0
aI0
aI0
aI0
aI0
aI0
aI0
aI0
aI0
aI0
aI0
aI0
aI0
aI0
aI0
aI0
aI0
aI0
aI0
aI0
aI0
aI0
aI0
aI0
aI0
aI0
aI0
aI0
aI0
aI0
aI0
aI0
aI0
aI0
aI0
aI0
aI0
aI0
aI0
aI0
aI0
aI0
aI0
aI0
aI0
aI0
aI0
aI0
aI0
aI0
aI0
aI0
aI0
aI0
aI0
aI0
aI0
aI0
aI0
aI0
aI0
aI0
aI0
aI0
aI0
aI0
aI0
aI0
aI0
aI0
aI0
aI0
asS'positive_words_hashtags'
p4
(lp5
I0
aI0
aI0
aI0
aI0
aI0
aI0
aI0
aI0
aI0
aI0
aI0
aI0
aI0
aI0
aI0
aI0
aI0
aI0
aI0
aI0
aI0
aI0
aI0
aI0
aI0
aI0
aI0
aI0
aI0
aI0
aI0
aI0
aI0
aI0
aI0
aI1
aI0
aI0
aI0
aI0
aI0
aI0
aI0
aI0
aI0
aI0
aI0
aI0
aI0
aI0
aI0
aI0
aI0
aI0
aI0
aI0
aI0
aI0
aI0
aI0
aI0
aI0
aI0
aI0
aI0
aI0
aI0
aI0
aI0
aI0
aI0
aI0
aI0
aI0
aI0
aI0
aI0
aI0
aI0
aI0
aI0
aI0
aI0
aI0
aI0
aI0
aI0
aI0
aI0
aI0
aI0
aI0
aI0
aI0
aI0
aI0
aI0
aI0
aI0
aI0
aI0
aI0
aI0
aI0
aI0
aI0
aI0
aI0
aI0
aI0
aI0
aI0
aI0
aI0
aI0
aI0
aI0
aI0
aI0
aI0
aI0
aI0
aI0
aI0
aI0
aI0
aI0
aI0
aI0
aI0
aI0
aI0
aI0
aI0
aI0
aI0
aI0
aI0
aI0
aI0
aI0
aI0
aI0
aI0
aI0
aI0
aI0
aI0
aI0
aI0
aI0
aI0
aI0
aI0
aI0
aI0
aI0
aI0
aI0
aI0
aI0
aI0
aI0
aI0
aI0
aI0
aI0
aI0
aI0
aI0
aI0
aI0
aI0
aI0
aI0
aI0
aI0
aI0
aI0
aI0
aI0
aI0
aI0
aI0
aI0
aI0
aI0
aI0
aI0
aI0
aI0
aI0
aI0
aI0
aI0
aI0
aI0
aI0
aI0
aI0
aI0
aI0
aI0
aI0
aI0
aI0
aI0
aI0
aI0
aI0
aI0
aI0
aI0
aI0
aI0
aI0
aI0
aI0
aI0
aI0
aI0
aI0
aI0
aI0
aI0
aI0
aI0
aI0
aI0
aI0
aI0
aI0
aI0
aI0
aI0
aI0
aI0
aI0
aI0
aI0
aI0
aI0
aI0
aI0
aI0
aI0
aI0
aI0
aI0
aI0
aI0
aI0
aI0
aI0
aI0
aI0
aI0
aI0
aI0
aI0
aI0
aI0
aI0
aI0
aI0
aI0
aI0
aI0
aI0
aI0
aI0
aI0
aI0
aI0
aI0
aI0
aI0
aI0
aI0
aI0
aI0
aI0
aI0
aI0
aI0
aI0
aI0
aI0
aI0
aI0
aI0
aI0
aI0
aI0
aI0
aI0
aI0
aI0
aI0
asS'special_punctuation'
p6
(lp7
I2
aI0
aI0
aI0
aI0
aI0
aI0
aI0
aI0
aI0
aI0
aI0
aI10
aI0
aI0
aI0
aI0
aI0
aI0
aI4
aI0
aI0
aI2
aI0
aI0
aI4
aI0
aI0
aI0
aI2
aI4
aI8
aI0
aI0
aI4
aI8
aI2
aI0
aI0
aI0
aI0
aI0
aI0
aI2
aI0
aI0
aI0
aI2
aI0
aI8
aI2
aI2
aI2
aI10
aI0
aI2
aI2
aI0
aI2
aI0
aI2
aI2
aI0
aI0
aI0
aI2
aI0
aI0
aI0
aI0
aI6
aI0
aI2
aI6
aI0
aI0
aI0
aI0
aI6
aI0
aI0
aI0
aI4
aI4
aI4
aI2
aI12
aI2
aI0
aI2
aI0
aI0
aI0
aI4
aI0
aI2
aI2
aI0
aI0
aI6
aI2
aI4
aI14
aI0
aI0
aI0
aI0
aI0
aI0
aI0
aI0
aI4
aI8
aI6
aI4
aI0
aI0
aI2
aI0
aI2
aI0
aI0
aI0
aI4
aI0
aI2
aI4
aI0
aI2
aI0
aI0
aI0
aI0
aI6
aI0
aI0
aI0
aI0
aI0
aI0
aI4
aI2
aI0
aI0
aI0
aI0
aI2
aI0
aI0
aI0
aI10
aI4
aI2
aI4
aI0
aI0
aI0
aI2
aI0
aI2
aI0
aI0
aI2
aI0
aI0
aI0
aI0
aI2
aI0
aI0
aI0
aI0
aI0
aI8
aI0
aI0
aI0
aI0
aI2
aI0
aI4
aI0
aI2
aI4
aI0
aI4
aI0
aI0
aI0
aI2
aI0
aI0
aI0
aI0
aI2
aI0
aI2
aI2
aI0
aI8
aI0
aI2
aI4
aI0
aI6
aI0
aI2
aI0
aI2
aI8
aI0
aI0
aI0
aI0
aI0
aI0
aI0
aI4
aI2
aI0
aI0
aI0
aI2
aI0
aI0
aI6
aI0
aI2
aI0
aI0
aI0
aI2
aI0
aI12
aI2
aI8
aI8
aI0
aI0
aI2
aI2
aI10
aI0
aI0
aI8
aI2
aI2
aI2
aI0
aI4
aI0
aI0
aI0
aI8
aI0
aI0
aI4
aI0
aI0
aI2
aI4
aI0
aI0
aI0
aI2
aI0
aI0
aI0
aI0
aI8
aI0
aI0
aI2
aI0
aI2
aI0
aI0
aI0
aI2
aI0
aI0
aI2
aI0
aI0
aI0
aI0
aI2
aI4
aI0
aI0
aI0
aI2
aI2
aI0
aI0
aI0
aI0
aI2
aI0
aI14
asS'uppercase_words'
p8
(lp9
I0
aI0
aI0
aI0
aI4
aI1
aI0
aI0
aI0
aI0
aI0
aI0
aI1
aI1
aI0
aI4
aI0
aI0
aI0
aI0
aI0
aI4
aI1
aI0
aI0
aI3
aI1
aI0
aI0
aI2
aI0
aI0
aI0
aI0
aI0
aI2
aI2
aI0
aI0
aI2
aI0
aI0
aI0
aI0
aI0
aI3
aI0
aI2
aI1
aI0
aI2
aI0
aI0
aI0
aI0
aI0
aI1
aI0
aI1
aI0
aI0
aI0
aI0
aI0
aI0
aI0
aI0
aI0
aI0
aI1
aI0
aI1
aI0
aI6
aI0
aI0
aI11
aI0
aI0
aI0
aI4
aI1
aI0
aI0
aI0
aI0
aI0
aI2
aI0
aI0
aI0
aI0
aI0
aI0
aI0
aI0
aI1
aI0
aI0
aI1
aI0
aI0
aI0
aI0
aI0
aI2
aI1
aI1
aI0
aI0
aI0
aI0
aI0
aI0
aI0
aI0
aI0
aI0
aI0
aI0
aI0
aI0
aI0
aI1
aI0
aI0
aI0
aI0
aI0
aI0
aI0
aI0
aI0
aI0
aI0
aI1
aI0
aI0
aI1
aI0
aI0
aI0
aI1
aI1
aI1
aI0
aI0
aI0
aI0
aI0
aI3
aI0
aI0
aI0
aI1
aI0
aI0
aI2
aI0
aI0
aI0
aI1
aI0
aI0
aI0
aI1
aI0
aI1
aI0
aI0
aI3
aI1
aI0
aI0
aI0
aI0
aI0
aI0
aI0
aI9
aI0
aI0
aI0
aI0
aI0
aI1
aI0
aI0
aI0
aI0
aI0
aI12
aI0
aI1
aI0
aI0
aI0
aI0
aI1
aI0
aI0
aI1
aI1
aI0
aI0
aI0
aI0
aI0
aI0
aI0
aI0
aI0
aI0
aI0
aI0
aI0
aI0
aI4
aI0
aI0
aI0
aI1
aI1
aI0
aI0
aI0
aI0
aI0
aI0
aI0
aI0
aI0
aI0
aI0
aI0
aI1
aI2
aI0
aI0
aI1
aI0
aI1
aI0
aI0
aI1
aI0
aI0
aI5
aI0
aI0
aI0
aI1
aI4
aI0
aI0
aI0
aI0
aI0
aI0
aI1
aI0
aI0
aI2
aI1
aI1
aI0
aI0
aI0
aI0
aI2
aI0
aI0
aI1
aI0
aI0
aI0
aI0
aI0
aI0
aI0
aI0
aI1
aI1
aI0
aI0
aI0
aI0
aI0
aI0
aI7
aI0
aI0
aI0
aI0
aI0
aI0
aI2
aI0
aI2
aI1
asS'negative_words'
p10
(lp11
I1
aI1
aI0
aI1
aI0
aI0
aI0
aI2
aI0
aI2
aI0
aI1
aI0
aI1
aI0
aI2
aI1
aI2
aI0
aI0
aI1
aI0
aI2
aI2
aI1
aI0
aI1
aI0
aI1
aI1
aI0
aI0
aI0
aI1
aI0
aI2
aI0
aI2
aI0
aI0
aI1
aI1
aI1
aI0
aI0
aI2
aI0
aI1
aI1
aI0
aI0
aI0
aI0
aI0
aI1
aI2
aI2
aI2
aI0
aI3
aI2
aI0
aI0
aI1
aI0
aI0
aI1
aI0
aI1
aI0
aI2
aI0
aI1
aI1
aI0
aI2
aI0
aI0
aI0
aI0
aI0
aI1
aI1
aI1
aI1
aI1
aI0
aI1
aI0
aI0
aI1
aI1
aI1
aI2
aI0
aI0
aI0
aI2
aI0
aI0
aI0
aI1
aI1
aI1
aI1
aI0
aI1
aI1
aI0
aI3
aI0
aI1
aI0
aI1
aI2
aI2
aI2
aI0
aI2
aI0
aI0
aI1
aI1
aI1
aI1
aI1
aI3
aI1
aI0
aI0
aI0
aI0
aI1
aI0
aI1
aI0
aI1
aI2
aI0
aI0
aI2
aI1
aI0
aI1
aI0
aI0
aI0
aI0
aI0
aI1
aI0
aI1
aI1
aI0
aI0
aI2
aI0
aI1
aI2
aI0
aI1
aI1
aI1
aI1
aI0
aI2
aI2
aI0
aI0
aI0
aI2
aI0
aI1
aI1
aI0
aI0
aI1
aI0
aI0
aI0
aI1
aI2
aI0
aI0
aI0
aI0
aI0
aI0
aI0
aI1
aI0
aI0
aI0
aI2
aI0
aI0
aI0
aI0
aI0
aI0
aI1
aI0
aI0
aI0
aI1
aI0
aI0
aI0
aI0
aI1
aI0
aI1
aI0
aI0
aI0
aI0
aI1
aI0
aI0
aI0
aI0
aI0
aI0
aI0
aI0
aI0
aI0
aI1
aI0
aI0
aI0
aI0
aI0
aI0
aI0
aI0
aI0
aI1
aI0
aI1
aI0
aI0
aI0
aI0
aI1
aI0
aI2
aI0
aI0
aI0
aI0
aI0
aI0
aI0
aI2
aI0
aI0
aI0
aI0
aI0
aI1
aI0
aI1
aI0
aI0
aI0
aI1
aI0
aI1
aI3
aI0
aI0
aI2
aI0
aI1
aI1
aI2
aI0
aI0
aI1
aI2
aI0
aI0
aI0
aI0
aI1
aI2
aI0
aI0
aI0
aI0
aI0
aI0
aI0
aI0
aI0
aI2
aI0
aI0
aI0
asS'positive_words'
p12
(lp13
I1
aI1
aI0
aI1
aI0
aI1
aI0
aI2
aI0
aI0
aI0
aI1
aI0
aI0
aI0
aI2
aI2
aI1
aI1
aI2
aI2
aI0
aI0
aI1
aI1
aI0
aI1
aI0
aI0
aI2
aI1
aI1
aI1
aI0
aI0
aI2
aI2
aI0
aI1
aI0
aI2
aI3
aI2
aI1
aI0
aI3
aI0
aI0
aI2
aI1
aI2
aI0
aI0
aI1
aI3
aI0
aI2
aI0
aI0
aI1
aI1
aI1
aI0
aI1
aI1
aI1
aI1
aI0
aI2
aI3
aI1
aI1
aI1
aI2
aI0
aI1
aI1
aI1
aI1
aI2
aI1
aI1
aI0
aI0
aI0
aI1
aI1
aI2
aI0
aI0
aI2
aI1
aI1
aI1
aI1
aI3
aI0
aI1
aI1
aI0
aI0
aI3
aI1
aI2
aI0
aI4
aI2
aI0
aI0
aI1
aI0
aI0
aI1
aI0
aI1
aI0
aI0
aI0
aI1
aI0
aI1
aI0
aI0
aI1
aI0
aI1
aI1
aI0
aI0
aI4
aI0
aI0
aI0
aI1
aI3
aI0
aI0
aI2
aI1
aI0
aI2
aI3
aI1
aI1
aI0
aI0
aI1
aI1
aI0
aI1
aI0
aI1
aI2
aI2
aI1
aI0
aI4
aI0
aI4
aI1
aI0
aI3
aI1
aI0
aI0
aI3
aI0
aI2
aI0
aI0
aI1
aI1
aI0
aI3
aI0
aI0
aI2
aI1
aI2
aI1
aI2
aI2
aI3
aI0
aI1
aI0
aI0
aI2
aI1
aI0
aI1
aI1
aI1
aI3
aI0
aI1
aI2
aI0
aI3
aI3
aI1
aI1
aI2
aI0
aI0
aI2
aI2
aI2
aI0
aI2
aI0
aI1
aI0
aI0
aI0
aI2
aI1
aI1
aI2
aI2
aI0
aI1
aI1
aI1
aI1
aI2
aI1
aI0
aI2
aI2
aI0
aI1
aI0
aI3
aI0
aI0
aI0
aI3
aI1
aI1
aI0
aI4
aI1
aI2
aI1
aI1
aI0
aI0
aI0
aI1
aI0
aI0
aI1
aI0
aI0
aI1
aI2
aI0
aI1
aI1
aI1
aI0
aI1
aI0
aI0
aI2
aI3
aI0
aI1
aI0
aI0
aI2
aI1
aI0
aI1
aI2
aI1
aI1
aI0
aI0
aI2
aI2
aI1
aI2
aI2
aI0
aI0
aI1
aI3
aI0
aI2
aI3
aI1
aI3
aI1
aI0
aI0
aI1
aI0
aI1
asS'adjectives'
p14
(lp15
I2
aI2
aI0
aI0
aI0
aI1
aI3
aI1
aI0
aI4
aI0
aI2
aI0
aI0
aI1
aI1
aI1
aI1
aI0
aI2
aI3
aI0
aI0
aI0
aI2
aI1
aI1
aI0
aI1
aI2
aI2
aI0
aI0
aI2
aI1
aI1
aI1
aI4
aI2
aI1
aI1
aI2
aI0
aI2
aI2
aI1
aI3
aI0
aI2
aI0
aI1
aI2
aI2
aI1
aI1
aI1
aI2
aI0
aI3
aI1
aI3
aI1
aI2
aI2
aI2
aI0
aI2
aI3
aI2
aI1
aI2
aI0
aI1
aI0
aI0
aI0
aI0
aI0
aI0
aI2
aI1
aI1
aI0
aI0
aI1
aI1
aI0
aI1
aI2
aI0
aI4
aI0
aI0
aI3
aI0
aI2
aI1
aI1
aI1
aI0
aI0
aI3
aI0
aI2
aI1
aI2
aI2
aI1
aI0
aI1
aI2
aI1
aI1
aI0
aI1
aI0
aI0
aI1
aI1
aI0
aI0
aI2
aI0
aI0
aI1
aI2
aI2
aI1
aI1
aI2
aI0
aI0
aI0
aI0
aI4
aI1
aI2
aI3
aI0
aI0
aI2
aI1
aI0
aI0
aI1
aI0
aI0
aI0
aI0
aI2
aI0
aI2
aI0
aI1
aI0
aI1
aI3
aI1
aI3
aI1
aI2
aI1
aI1
aI1
aI0
aI1
aI1
aI0
aI1
aI1
aI0
aI1
aI1
aI2
aI0
aI0
aI1
aI1
aI0
aI1
aI1
aI1
aI2
aI1
aI0
aI1
aI2
aI2
aI0
aI0
aI0
aI0
aI1
aI4
aI0
aI0
aI1
aI0
aI2
aI3
aI1
aI0
aI2
aI0
aI2
aI1
aI1
aI1
aI0
aI2
aI1
aI1
aI0
aI1
aI3
aI0
aI0
aI0
aI2
aI0
aI2
aI0
aI3
aI2
aI0
aI0
aI1
aI0
aI1
aI3
aI0
aI0
aI0
aI1
aI0
aI1
aI2
aI5
aI0
aI3
aI1
aI1
aI3
aI2
aI0
aI0
aI2
aI0
aI0
aI1
aI0
aI0
aI0
aI2
aI0
aI0
aI1
aI0
aI0
aI1
aI2
aI0
aI1
aI0
aI1
aI3
aI3
aI0
aI1
aI1
aI0
aI2
aI1
aI1
aI0
aI0
aI1
aI0
aI0
aI2
aI1
aI2
aI1
aI3
aI2
aI0
aI1
aI0
aI1
aI0
aI1
aI2
aI0
aI2
aI0
aI0
aI1
aI0
aI1
aI1
asS'words'
p16
(lp17
I23
aI9
aI10
aI17
aI8
aI18
aI27
aI23
aI12
aI26
aI30
aI30
aI12
aI24
aI22
aI21
aI20
aI22
aI9
aI23
aI25
aI18
aI13
aI17
aI27
aI20
aI24
aI20
aI24
aI27
aI17
aI27
aI29
aI22
aI24
aI31
aI25
aI12
aI10
aI7
aI15
aI22
aI11
aI24
aI15
aI26
aI27
aI28
aI23
aI12
aI27
aI14
aI23
aI18
aI25
aI10
aI22
aI9
aI28
aI14
aI10
aI15
aI28
aI11
aI26
aI15
aI21
aI28
aI24
aI20
aI15
aI22
aI28
aI25
aI13
aI23
aI18
aI27
aI20
aI19
aI30
aI16
aI16
aI16
aI25
aI25
aI21
aI11
aI12
aI17
aI27
aI23
aI23
aI19
aI10
aI22
aI17
aI24
aI21
aI8
aI11
aI19
aI8
aI12
aI13
aI25
aI31
aI15
aI16
aI17
aI14
aI14
aI5
aI32
aI16
aI35
aI34
aI21
aI22
aI28
aI10
aI22
aI8
aI31
aI12
aI25
aI22
aI15
aI21
aI29
aI18
aI16
aI22
aI20
aI17
aI14
aI15
aI25
aI7
aI46
aI14
aI20
aI24
aI14
aI18
aI23
aI12
aI13
aI9
aI15
aI28
aI22
aI18
aI17
aI26
aI27
aI24
aI15
aI24
aI18
aI14
aI20
aI16
aI14
aI22
aI12
aI15
aI20
aI23
aI20
aI17
aI23
aI7
aI19
aI6
aI18
aI26
aI21
aI18
aI10
aI23
aI13
aI23
aI25
aI7
aI12
aI14
aI21
aI16
aI15
aI20
aI19
aI12
aI25
aI9
aI3
aI14
aI3
aI22
aI17
aI28
aI16
aI17
aI13
aI17
aI11
aI11
aI27
aI14
aI27
aI23
aI13
aI20
aI12
aI26
aI9
aI31
aI27
aI25
aI19
aI23
aI9
aI26
aI23
aI9
aI12
aI23
aI19
aI14
aI27
aI7
aI17
aI10
aI18
aI4
aI26
aI20
aI22
aI9
aI23
aI19
aI24
aI24
aI23
aI22
aI19
aI34
aI20
aI4
aI12
aI8
aI17
aI14
aI8
aI24
aI15
aI12
aI22
aI19
aI12
aI14
aI4
aI22
aI12
aI11
aI23
aI18
aI20
aI20
aI24
aI15
aI15
aI17
aI13
aI19
aI8
aI19
aI19
aI19
aI11
aI19
aI21
aI28
aI27
aI23
aI10
aI24
aI9
aI11
aI21
aI17
aI16
aI7
aI12
aI11
aI3
aI21
aI10
aI10
aI7
as.