(dp1
S'negative_words_hashtags'
p2
(lp3
I0
aI0
aI0
aI0
aI0
aI0
aI0
aI0
aI0
aI0
aI0
aI0
aI0
aI0
aI0
aI0
aI0
aI0
aI0
aI0
aI0
aI0
aI0
aI0
aI0
aI0
aI0
aI0
aI0
aI0
aI0
asS'positive_words_hashtags'
p4
(lp5
I0
aI0
aI0
aI0
aI0
aI0
aI0
aI0
aI0
aI0
aI0
aI0
aI0
aI0
aI0
aI0
aI0
aI0
aI0
aI0
aI0
aI0
aI0
aI0
aI0
aI0
aI0
aI0
aI0
aI0
aI0
asS'special_punctuation'
p6
(lp7
I0
aI0
aI0
aI0
aI0
aI2
aI4
aI0
aI2
aI4
aI2
aI0
aI0
aI0
aI0
aI4
aI0
aI0
aI0
aI2
aI2
aI0
aI4
aI0
aI0
aI0
aI0
aI0
aI6
aI0
aI0
asS'uppercase_words'
p8
(lp9
I0
aI0
aI0
aI1
aI1
aI0
aI0
aI1
aI0
aI0
aI0
aI0
aI0
aI0
aI0
aI1
aI0
aI0
aI0
aI1
aI2
aI0
aI0
aI0
aI0
aI0
aI0
aI0
aI0
aI0
aI0
asS'negative_words'
p10
(lp11
I0
aI0
aI0
aI0
aI1
aI0
aI0
aI0
aI0
aI0
aI0
aI0
aI1
aI0
aI1
aI0
aI0
aI0
aI1
aI0
aI0
aI0
aI0
aI1
aI2
aI2
aI0
aI0
aI2
aI1
aI0
asS'positive_words'
p12
(lp13
I1
aI0
aI1
aI1
aI1
aI1
aI0
aI1
aI0
aI0
aI2
aI2
aI0
aI1
aI2
aI1
aI2
aI1
aI0
aI4
aI1
aI2
aI2
aI0
aI0
aI3
aI0
aI0
aI1
aI1
aI1
asS'adjectives'
p14
(lp15
I1
aI0
aI0
aI0
aI2
aI0
aI0
aI0
aI0
aI0
aI1
aI1
aI0
aI0
aI2
aI0
aI1
aI0
aI1
aI1
aI2
aI0
aI2
aI2
aI1
aI2
aI1
aI0
aI0
aI0
aI0
asS'words'
p16
(lp17
I14
aI5
aI7
aI11
aI16
aI9
aI4
aI14
aI13
aI6
aI14
aI16
aI10
aI14
aI16
aI13
aI25
aI8
aI11
aI20
aI20
aI14
aI27
aI26
aI11
aI23
aI23
aI8
aI12
aI25
aI24
as.