(dp1
S'negative_words_hashtags'
p2
(lp3
I0
aI0
aI0
aI0
aI0
aI0
aI0
aI0
aI0
aI0
aI0
aI0
aI0
aI0
aI0
aI0
aI0
aI0
aI0
aI0
aI0
aI0
aI0
aI0
aI0
aI0
aI0
aI0
aI0
aI0
aI0
aI0
aI0
aI0
aI0
aI0
aI0
aI0
aI0
aI0
aI0
aI0
aI0
aI0
aI0
aI0
aI0
aI0
aI0
aI0
aI0
aI0
aI0
aI0
aI0
aI0
aI0
aI0
aI0
aI0
aI0
aI0
aI0
aI0
aI0
aI0
aI0
aI0
aI0
aI0
aI0
aI0
asS'positive_words_hashtags'
p4
(lp5
I0
aI0
aI0
aI0
aI0
aI0
aI0
aI0
aI0
aI0
aI0
aI0
aI0
aI0
aI0
aI0
aI0
aI0
aI0
aI0
aI0
aI0
aI0
aI0
aI0
aI0
aI0
aI0
aI0
aI0
aI0
aI0
aI0
aI0
aI0
aI0
aI0
aI0
aI0
aI0
aI0
aI0
aI0
aI0
aI0
aI0
aI0
aI0
aI0
aI0
aI0
aI0
aI0
aI0
aI0
aI0
aI0
aI0
aI0
aI0
aI0
aI0
aI0
aI0
aI0
aI0
aI0
aI0
aI0
aI0
aI0
aI0
asS'special_punctuation'
p6
(lp7
I10
aI0
aI2
aI0
aI2
aI0
aI0
aI0
aI8
aI0
aI0
aI0
aI0
aI0
aI0
aI0
aI0
aI4
aI2
aI0
aI0
aI2
aI0
aI0
aI0
aI0
aI2
aI0
aI0
aI4
aI2
aI0
aI0
aI4
aI0
aI4
aI0
aI0
aI2
aI0
aI4
aI2
aI2
aI0
aI2
aI0
aI0
aI0
aI0
aI0
aI0
aI2
aI0
aI0
aI2
aI6
aI0
aI0
aI0
aI0
aI0
aI2
aI2
aI0
aI0
aI0
aI4
aI0
aI0
aI6
aI2
aI4
asS'uppercase_words'
p8
(lp9
I1
aI0
aI1
aI1
aI0
aI0
aI0
aI0
aI0
aI0
aI0
aI0
aI0
aI0
aI0
aI0
aI0
aI0
aI1
aI0
aI1
aI0
aI1
aI0
aI0
aI0
aI0
aI1
aI0
aI0
aI0
aI0
aI0
aI1
aI0
aI1
aI0
aI0
aI1
aI0
aI0
aI1
aI0
aI0
aI0
aI0
aI1
aI0
aI0
aI1
aI0
aI0
aI1
aI1
aI4
aI0
aI0
aI0
aI0
aI0
aI0
aI0
aI3
aI1
aI0
aI0
aI0
aI0
aI1
aI0
aI1
aI0
asS'negative_words'
p10
(lp11
I0
aI2
aI2
aI0
aI1
aI0
aI1
aI0
aI1
aI0
aI0
aI1
aI0
aI0
aI1
aI2
aI2
aI0
aI0
aI1
aI1
aI0
aI1
aI0
aI2
aI1
aI0
aI0
aI0
aI1
aI0
aI1
aI0
aI0
aI0
aI0
aI0
aI0
aI0
aI0
aI0
aI1
aI0
aI0
aI0
aI0
aI0
aI1
aI0
aI1
aI0
aI0
aI1
aI0
aI0
aI2
aI0
aI1
aI0
aI1
aI2
aI0
aI0
aI0
aI0
aI0
aI0
aI1
aI1
aI0
aI0
aI0
asS'positive_words'
p12
(lp13
I1
aI0
aI0
aI0
aI1
aI3
aI0
aI5
aI0
aI1
aI1
aI1
aI0
aI2
aI0
aI0
aI1
aI1
aI0
aI2
aI1
aI1
aI1
aI0
aI2
aI0
aI0
aI0
aI1
aI2
aI0
aI0
aI1
aI1
aI2
aI2
aI1
aI1
aI1
aI1
aI1
aI5
aI0
aI1
aI1
aI1
aI1
aI3
aI0
aI1
aI1
aI5
aI0
aI1
aI2
aI1
aI0
aI0
aI4
aI1
aI1
aI0
aI0
aI0
aI0
aI1
aI3
aI2
aI1
aI1
aI0
aI2
asS'adjectives'
p14
(lp15
I1
aI1
aI1
aI0
aI2
aI4
aI1
aI3
aI1
aI1
aI0
aI3
aI0
aI0
aI0
aI2
aI1
aI0
aI0
aI1
aI1
aI0
aI1
aI0
aI0
aI0
aI1
aI1
aI0
aI0
aI0
aI1
aI2
aI0
aI0
aI3
aI0
aI3
aI1
aI0
aI2
aI2
aI0
aI2
aI2
aI0
aI0
aI3
aI0
aI0
aI0
aI1
aI0
aI2
aI1
aI2
aI2
aI1
aI1
aI2
aI2
aI0
aI1
aI0
aI0
aI0
aI0
aI1
aI3
aI1
aI2
aI2
asS'words'
p16
(lp17
I28
aI17
aI27
aI10
aI22
aI27
aI11
aI28
aI18
aI25
aI15
aI27
aI27
aI23
aI14
aI29
aI18
aI25
aI17
aI29
aI28
aI27
aI20
aI15
aI21
aI6
aI17
aI14
aI19
aI26
aI11
aI26
aI25
aI10
aI16
aI18
aI20
aI27
aI23
aI7
aI22
aI15
aI12
aI11
aI12
aI16
aI7
aI34
aI13
aI18
aI17
aI23
aI11
aI30
aI20
aI25
aI10
aI30
aI12
aI23
aI21
aI20
aI27
aI11
aI29
aI27
aI19
aI29
aI24
aI13
aI18
aI12
as.