(dp1
S'negative_words_hashtags'
p2
(lp3
I0
aI0
aI0
aI0
aI0
aI0
aI0
aI0
aI0
aI0
aI0
aI0
aI0
aI0
aI0
aI0
aI0
aI0
aI0
aI0
asS'positive_words_hashtags'
p4
(lp5
I0
aI0
aI0
aI0
aI0
aI0
aI0
aI0
aI0
aI0
aI0
aI0
aI0
aI0
aI0
aI0
aI0
aI0
aI0
aI0
asS'special_punctuation'
p6
(lp7
I0
aI0
aI0
aI4
aI0
aI2
aI0
aI2
aI0
aI0
aI0
aI0
aI0
aI0
aI4
aI0
aI4
aI2
aI2
aI0
asS'uppercase_words'
p8
(lp9
I0
aI1
aI0
aI1
aI0
aI1
aI0
aI1
aI0
aI0
aI0
aI0
aI0
aI1
aI0
aI0
aI0
aI0
aI1
aI0
asS'negative_words'
p10
(lp11
I1
aI1
aI0
aI1
aI0
aI0
aI1
aI0
aI0
aI3
aI0
aI0
aI0
aI0
aI1
aI0
aI2
aI0
aI0
aI0
asS'positive_words'
p12
(lp13
I0
aI2
aI0
aI0
aI2
aI0
aI0
aI2
aI0
aI0
aI1
aI1
aI2
aI1
aI4
aI2
aI0
aI1
aI1
aI1
asS'adjectives'
p14
(lp15
I0
aI1
aI2
aI1
aI0
aI0
aI0
aI2
aI0
aI3
aI1
aI2
aI0
aI2
aI2
aI3
aI0
aI0
aI0
aI1
asS'words'
p16
(lp17
I19
aI20
aI21
aI20
aI13
aI29
aI28
aI30
aI20
aI17
aI22
aI21
aI25
aI25
aI21
aI29
aI16
aI18
aI24
aI29
as.