(dp1
S'negative_words_hashtags'
p2
(lp3
I0
aI0
aI0
aI0
aI0
aI0
aI0
aI0
aI0
aI0
aI0
aI0
aI0
aI0
aI0
aI0
aI0
aI0
aI0
aI1
aI0
aI0
aI0
aI0
aI0
aI0
aI0
aI0
aI0
aI0
aI0
aI0
aI0
aI0
aI0
aI0
aI0
aI0
aI0
aI0
aI0
aI0
aI0
aI0
aI0
aI0
aI0
aI0
aI0
aI0
aI0
aI0
aI0
aI0
aI0
aI0
aI0
aI0
aI0
aI0
aI0
aI0
aI0
aI0
aI0
aI0
aI0
aI0
aI0
aI0
aI0
aI0
aI0
aI0
aI0
aI0
aI0
aI0
aI0
aI0
aI0
aI0
aI0
aI0
aI0
aI0
aI0
aI0
aI0
aI0
aI0
aI0
aI0
aI0
aI0
aI0
aI0
aI0
aI0
aI0
aI0
aI0
aI0
aI0
aI0
aI0
aI0
aI0
aI0
aI0
aI0
aI0
aI0
aI0
aI0
aI0
aI0
aI0
aI0
aI0
aI0
aI0
aI0
aI0
aI0
aI0
aI0
aI0
aI0
aI0
aI0
aI0
aI0
aI0
aI0
aI0
aI0
aI0
aI0
aI0
aI0
aI0
aI0
aI0
aI0
aI0
aI0
aI0
aI0
aI0
aI0
aI0
aI0
aI0
aI0
aI0
aI0
aI0
aI0
aI0
aI0
aI0
aI0
aI0
aI0
aI0
aI0
aI0
aI0
aI0
aI0
aI0
aI0
aI0
aI0
aI0
aI0
aI0
aI0
aI0
aI0
aI0
aI0
aI0
aI0
aI0
aI0
aI0
aI0
aI0
aI0
aI0
aI0
aI0
aI0
aI0
aI0
aI0
aI0
aI0
aI0
aI0
aI0
aI0
aI0
aI0
aI0
aI0
aI0
aI0
aI0
aI0
aI0
aI0
aI0
aI0
aI0
aI0
aI0
aI0
aI0
aI0
aI0
aI0
aI0
aI0
aI0
aI0
aI0
aI0
aI0
aI0
aI0
aI0
aI0
aI0
aI0
aI0
aI0
aI0
aI0
aI0
aI0
aI0
aI0
aI0
aI0
aI0
aI0
aI0
aI0
aI0
aI0
aI0
aI0
aI0
aI0
aI0
aI0
aI0
aI0
aI0
aI0
aI0
aI0
aI0
aI0
aI0
aI0
aI0
aI0
aI0
aI0
aI0
aI0
aI0
aI0
aI0
aI0
aI0
aI0
aI0
aI0
aI0
aI0
aI0
aI0
aI0
aI0
aI0
aI0
aI0
aI0
aI0
aI0
aI0
aI0
aI0
aI0
aI0
aI0
aI0
aI0
aI0
aI0
aI0
aI0
aI0
aI0
aI0
aI0
aI0
aI0
aI0
aI0
aI0
aI0
aI0
aI0
aI0
aI0
aI0
aI0
aI0
aI0
aI0
aI0
aI0
aI0
aI0
aI0
aI0
aI0
aI0
aI0
aI0
aI0
aI0
aI0
aI0
aI0
aI0
aI0
aI0
aI0
aI0
aI0
aI0
aI0
aI0
aI0
aI0
aI0
aI0
aI0
aI0
aI0
aI0
aI0
aI0
aI0
aI0
aI0
aI0
aI0
aI0
aI0
aI0
aI0
aI0
aI0
aI0
aI0
aI0
aI0
aI0
aI0
aI0
aI0
aI0
aI0
aI0
aI0
aI0
aI0
aI0
aI0
aI0
aI0
aI0
aI0
aI0
aI0
aI0
aI0
aI0
aI0
aI0
aI0
aI0
aI0
aI0
aI0
aI0
aI0
aI0
aI0
aI0
aI0
aI0
aI0
aI0
aI0
aI0
aI0
aI0
aI0
aI0
aI0
aI0
aI0
aI0
aI0
aI0
aI0
aI0
aI0
aI0
aI0
aI0
aI0
aI0
aI0
aI0
aI0
aI0
aI0
aI0
aI0
aI0
aI0
aI0
aI0
aI0
aI0
aI0
aI0
aI0
aI0
aI0
aI0
aI0
aI0
aI0
aI0
aI0
aI0
aI0
aI0
aI0
aI0
aI0
aI0
aI0
aI0
aI0
aI0
aI0
aI0
aI0
aI0
aI0
aI0
aI0
aI0
aI0
aI0
aI0
aI0
aI0
aI0
aI0
aI0
aI0
aI0
aI0
aI0
aI0
aI0
aI0
aI0
aI0
aI0
aI0
aI0
aI0
aI0
aI0
aI0
aI0
aI0
aI0
aI0
aI0
aI0
aI0
aI0
aI0
aI0
aI0
aI0
aI0
aI0
aI0
aI0
aI0
aI0
aI0
aI0
aI0
aI0
aI0
aI0
aI0
aI0
aI0
aI0
aI0
aI0
aI0
aI0
aI0
aI0
aI0
aI0
aI0
aI0
aI0
aI0
aI0
aI0
aI0
aI0
aI0
aI0
aI0
aI0
aI0
aI0
aI0
aI0
aI0
aI0
aI0
aI0
aI0
aI0
aI0
aI0
aI0
aI0
aI0
aI0
aI0
aI0
aI0
aI0
aI0
aI0
aI0
aI0
aI0
aI0
aI0
aI0
aI0
aI0
aI0
aI0
aI0
aI0
aI0
aI0
aI0
aI0
aI0
aI0
aI0
aI0
aI0
aI0
aI0
aI0
aI0
aI0
aI0
aI0
aI0
aI0
aI0
aI0
aI0
aI0
aI0
aI0
aI0
aI0
aI0
aI0
aI0
aI0
aI0
aI0
aI0
aI0
aI0
aI0
aI0
aI0
aI0
aI0
aI0
aI0
aI0
aI0
aI0
aI0
aI0
aI0
aI0
aI0
aI0
aI0
aI0
aI0
aI0
aI0
aI0
aI0
aI0
aI0
aI0
aI0
aI0
aI0
aI0
aI0
aI0
aI0
aI0
aI0
aI0
aI0
aI0
aI0
aI0
aI0
aI0
aI0
aI0
aI0
aI0
aI0
aI0
aI0
aI0
aI0
aI0
aI0
aI0
aI0
aI0
aI0
aI0
aI0
aI0
aI0
aI0
aI0
aI0
aI0
aI0
aI3
aI0
aI0
aI0
aI1
aI0
aI0
aI0
aI0
aI0
aI0
aI0
aI0
aI0
aI0
aI0
aI0
aI0
aI0
aI0
aI0
aI0
aI0
aI0
aI0
aI0
aI0
aI0
aI0
aI0
aI0
aI0
aI0
aI0
aI0
aI0
aI0
aI0
aI0
aI0
aI0
aI0
aI0
aI0
aI0
aI0
aI0
aI0
aI0
aI0
aI0
aI0
aI0
aI0
aI0
aI0
aI0
aI0
aI0
aI0
aI0
aI0
aI0
aI0
aI0
aI0
aI0
aI0
aI0
aI0
aI0
aI0
aI0
aI0
aI0
aI0
aI0
aI0
aI0
aI0
aI0
aI0
aI0
aI0
aI0
aI0
aI0
aI0
aI0
aI0
aI0
aI0
aI0
aI0
aI0
aI0
aI0
aI0
aI0
aI0
aI0
aI1
aI0
aI0
aI0
aI0
aI0
aI0
aI0
aI0
aI0
aI0
aI0
aI0
aI0
aI0
aI0
aI0
aI0
aI0
aI0
aI0
aI0
aI0
aI0
aI0
aI0
aI0
aI0
aI0
aI0
aI0
aI0
aI0
aI0
aI0
aI0
aI0
aI0
aI0
aI0
aI0
aI0
aI0
aI0
aI0
aI0
aI0
aI0
aI0
aI0
aI0
aI0
aI0
aI0
aI0
aI0
aI0
aI0
aI0
aI0
aI0
aI0
aI0
aI0
aI0
aI0
aI0
aI0
aI0
aI0
aI0
aI0
aI0
aI0
aI0
aI0
aI0
aI0
aI0
aI0
aI0
aI0
aI0
aI0
aI0
aI0
aI0
aI0
aI0
aI0
aI0
aI0
aI0
aI0
aI0
aI0
aI0
aI0
aI0
aI0
aI0
aI0
aI0
aI0
aI0
aI0
aI0
aI0
aI0
aI0
aI0
aI0
aI0
aI0
aI0
aI0
aI0
aI0
aI0
aI0
aI0
aI0
aI0
aI0
aI0
aI0
aI0
aI0
aI0
aI0
aI0
aI0
aI0
aI0
aI0
aI0
aI0
aI0
aI0
aI0
aI0
aI0
aI0
aI0
aI0
aI0
aI0
aI0
aI0
aI0
aI0
aI0
aI0
aI0
aI0
aI0
aI0
aI0
aI0
aI0
aI0
aI0
aI0
aI0
aI0
aI0
aI0
aI0
aI0
aI0
aI0
aI0
aI0
aI0
aI0
aI0
aI0
aI0
aI0
aI0
aI0
aI0
aI0
aI0
aI0
aI0
aI0
aI0
aI0
aI0
aI0
aI0
aI0
aI0
aI0
aI0
aI0
aI0
aI0
aI0
aI0
aI0
aI0
aI0
aI0
aI0
aI0
aI0
aI0
aI0
aI0
aI0
aI0
aI0
aI0
aI0
aI0
aI0
aI0
aI0
aI0
aI0
aI0
aI0
aI0
aI0
aI0
aI0
aI0
aI0
aI0
aI0
aI0
aI0
aI0
aI0
aI0
aI0
aI0
aI0
aI0
aI0
aI0
aI0
aI0
aI0
aI0
aI0
aI0
aI0
aI0
aI0
aI0
aI0
aI0
aI0
aI0
aI0
aI0
aI0
aI0
aI0
aI0
aI0
aI0
aI0
aI0
aI0
aI0
aI0
aI0
aI0
aI0
aI0
aI0
aI0
aI0
aI0
aI0
aI0
aI0
aI0
aI0
aI0
aI0
aI0
aI0
aI0
aI0
aI0
aI0
aI0
aI0
aI0
aI0
aI0
aI0
aI0
aI0
aI0
aI0
aI0
aI0
aI0
aI0
aI0
aI0
aI0
aI0
aI0
aI0
aI0
aI0
aI0
aI0
aI0
aI0
aI0
asS'positive_words_hashtags'
p4
(lp5
I0
aI2
aI0
aI0
aI0
aI0
aI0
aI0
aI0
aI0
aI0
aI0
aI0
aI0
aI0
aI0
aI0
aI0
aI0
aI0
aI0
aI0
aI0
aI0
aI0
aI0
aI0
aI0
aI0
aI0
aI0
aI0
aI0
aI0
aI0
aI0
aI0
aI0
aI0
aI0
aI0
aI0
aI0
aI0
aI0
aI0
aI0
aI0
aI0
aI0
aI0
aI0
aI0
aI0
aI0
aI0
aI0
aI0
aI0
aI0
aI0
aI0
aI0
aI0
aI0
aI0
aI0
aI0
aI0
aI0
aI0
aI0
aI0
aI0
aI0
aI0
aI0
aI0
aI0
aI0
aI0
aI0
aI0
aI0
aI0
aI0
aI0
aI0
aI0
aI0
aI0
aI0
aI0
aI0
aI0
aI0
aI0
aI0
aI0
aI0
aI0
aI0
aI0
aI0
aI0
aI0
aI0
aI0
aI0
aI0
aI0
aI0
aI0
aI0
aI0
aI0
aI0
aI0
aI0
aI0
aI0
aI0
aI0
aI0
aI0
aI0
aI0
aI0
aI0
aI0
aI0
aI0
aI0
aI0
aI0
aI0
aI0
aI0
aI0
aI0
aI0
aI0
aI0
aI0
aI0
aI0
aI0
aI0
aI0
aI0
aI0
aI0
aI0
aI0
aI0
aI0
aI0
aI0
aI0
aI0
aI0
aI0
aI0
aI0
aI0
aI0
aI0
aI0
aI0
aI0
aI0
aI0
aI0
aI0
aI0
aI0
aI0
aI0
aI0
aI0
aI0
aI0
aI0
aI0
aI0
aI0
aI0
aI0
aI0
aI0
aI0
aI0
aI0
aI0
aI0
aI0
aI0
aI0
aI0
aI0
aI0
aI0
aI0
aI0
aI0
aI0
aI0
aI0
aI0
aI0
aI0
aI0
aI0
aI0
aI0
aI0
aI0
aI0
aI0
aI0
aI0
aI0
aI0
aI0
aI0
aI0
aI0
aI0
aI0
aI0
aI0
aI0
aI0
aI0
aI0
aI0
aI0
aI0
aI0
aI0
aI0
aI0
aI0
aI0
aI0
aI0
aI0
aI0
aI0
aI0
aI0
aI0
aI0
aI0
aI0
aI0
aI0
aI0
aI0
aI0
aI0
aI0
aI0
aI0
aI0
aI0
aI0
aI0
aI0
aI0
aI0
aI0
aI0
aI0
aI0
aI0
aI0
aI0
aI0
aI0
aI0
aI0
aI0
aI0
aI0
aI0
aI0
aI0
aI0
aI0
aI0
aI0
aI0
aI0
aI0
aI0
aI0
aI0
aI0
aI0
aI0
aI0
aI0
aI0
aI0
aI0
aI0
aI0
aI0
aI0
aI0
aI0
aI0
aI0
aI0
aI0
aI0
aI0
aI0
aI0
aI0
aI0
aI0
aI0
aI0
aI0
aI0
aI0
aI0
aI0
aI0
aI0
aI0
aI0
aI0
aI0
aI0
aI0
aI0
aI0
aI0
aI0
aI0
aI0
aI0
aI0
aI0
aI0
aI0
aI0
aI0
aI0
aI0
aI0
aI0
aI0
aI0
aI0
aI0
aI0
aI0
aI0
aI0
aI0
aI0
aI0
aI0
aI0
aI0
aI0
aI0
aI0
aI0
aI0
aI0
aI0
aI0
aI0
aI0
aI0
aI0
aI0
aI0
aI0
aI0
aI0
aI0
aI0
aI0
aI0
aI0
aI0
aI0
aI0
aI0
aI0
aI0
aI0
aI0
aI0
aI0
aI0
aI0
aI0
aI0
aI0
aI0
aI0
aI0
aI0
aI0
aI0
aI0
aI0
aI0
aI0
aI0
aI0
aI0
aI0
aI0
aI0
aI0
aI0
aI0
aI0
aI0
aI0
aI0
aI0
aI0
aI0
aI0
aI0
aI0
aI0
aI0
aI0
aI0
aI0
aI0
aI0
aI0
aI0
aI0
aI0
aI0
aI0
aI0
aI0
aI0
aI0
aI0
aI0
aI0
aI0
aI0
aI0
aI0
aI0
aI0
aI0
aI0
aI0
aI0
aI0
aI0
aI0
aI0
aI0
aI0
aI0
aI0
aI0
aI0
aI0
aI0
aI0
aI0
aI0
aI0
aI0
aI0
aI0
aI0
aI0
aI0
aI0
aI0
aI0
aI0
aI0
aI0
aI0
aI0
aI0
aI0
aI0
aI0
aI0
aI0
aI0
aI0
aI0
aI0
aI0
aI0
aI0
aI0
aI0
aI0
aI0
aI0
aI0
aI0
aI0
aI0
aI0
aI0
aI0
aI0
aI0
aI0
aI0
aI0
aI0
aI0
aI0
aI0
aI0
aI0
aI0
aI0
aI0
aI0
aI0
aI0
aI0
aI0
aI0
aI0
aI0
aI0
aI0
aI0
aI0
aI0
aI0
aI0
aI0
aI0
aI0
aI0
aI0
aI0
aI0
aI0
aI0
aI0
aI0
aI0
aI0
aI0
aI0
aI0
aI0
aI0
aI0
aI0
aI0
aI0
aI0
aI0
aI0
aI0
aI0
aI0
aI0
aI0
aI0
aI0
aI0
aI0
aI0
aI0
aI0
aI0
aI0
aI0
aI0
aI0
aI0
aI0
aI0
aI0
aI0
aI0
aI0
aI0
aI0
aI0
aI0
aI0
aI0
aI0
aI0
aI0
aI0
aI0
aI0
aI0
aI0
aI0
aI0
aI0
aI0
aI0
aI0
aI0
aI0
aI0
aI0
aI0
aI0
aI0
aI0
aI0
aI0
aI0
aI0
aI0
aI0
aI0
aI0
aI0
aI0
aI0
aI0
aI0
aI0
aI0
aI0
aI0
aI0
aI0
aI0
aI0
aI0
aI0
aI0
aI0
aI0
aI0
aI0
aI0
aI0
aI0
aI0
aI0
aI0
aI0
aI0
aI0
aI0
aI0
aI0
aI0
aI0
aI0
aI0
aI0
aI0
aI0
aI0
aI0
aI0
aI0
aI0
aI0
aI0
aI0
aI0
aI1
aI0
aI0
aI0
aI0
aI0
aI0
aI0
aI0
aI0
aI0
aI0
aI0
aI0
aI0
aI0
aI0
aI0
aI0
aI0
aI0
aI0
aI0
aI0
aI0
aI0
aI0
aI0
aI0
aI0
aI0
aI0
aI0
aI0
aI0
aI0
aI0
aI0
aI0
aI0
aI0
aI0
aI0
aI0
aI0
aI0
aI0
aI0
aI0
aI0
aI0
aI0
aI0
aI0
aI0
aI0
aI0
aI0
aI0
aI0
aI0
aI0
aI0
aI0
aI0
aI0
aI0
aI0
aI0
aI0
aI0
aI0
aI0
aI0
aI0
aI0
aI0
aI0
aI0
aI0
aI0
aI0
aI1
aI0
aI0
aI0
aI0
aI0
aI0
aI0
aI0
aI0
aI0
aI0
aI0
aI0
aI0
aI0
aI0
aI0
aI0
aI1
aI0
aI0
aI0
aI0
aI0
aI0
aI0
aI0
aI0
aI0
aI0
aI0
aI0
aI0
aI0
aI0
aI0
aI0
aI0
aI0
aI0
aI0
aI0
aI0
aI0
aI0
aI0
aI0
aI0
aI0
aI0
aI0
aI0
aI0
aI0
aI0
aI0
aI0
aI0
aI0
aI0
aI0
aI0
aI0
aI0
aI0
aI0
aI0
aI0
aI0
aI0
aI0
aI0
aI0
aI0
aI0
aI0
aI0
aI0
aI0
aI0
aI0
aI0
aI0
aI0
aI0
aI0
aI0
aI0
aI0
aI0
aI0
aI0
aI0
aI0
aI0
aI0
aI0
aI0
aI0
aI0
aI0
aI0
aI0
aI0
aI0
aI0
aI0
aI0
aI0
aI0
aI0
aI0
aI0
aI0
aI0
aI0
aI0
aI0
aI0
aI0
aI0
aI0
aI0
aI0
aI0
aI0
aI0
aI0
aI0
aI0
aI0
aI0
aI0
aI0
aI0
aI0
aI0
aI0
aI0
aI0
aI0
aI0
aI0
aI0
aI0
aI0
aI0
aI0
aI0
aI0
aI0
aI0
aI0
aI0
aI0
aI0
aI0
aI0
aI0
aI0
aI0
aI0
aI0
aI0
aI0
aI0
aI0
aI0
aI0
aI0
aI0
aI0
aI0
aI0
aI0
aI0
aI0
aI0
aI0
aI0
aI0
aI0
aI0
aI0
aI0
aI0
aI0
aI0
aI0
aI0
aI0
aI0
aI0
aI0
aI0
aI0
aI0
aI0
aI0
aI0
aI0
aI0
aI0
aI0
aI0
aI0
aI0
aI0
aI0
aI0
aI0
aI0
aI0
aI0
aI0
aI0
aI0
aI0
aI0
aI0
aI0
aI0
aI0
aI0
aI0
aI0
aI0
aI0
aI0
aI0
aI0
aI0
aI0
aI0
aI0
aI0
aI0
aI0
aI0
aI0
aI0
aI0
aI0
aI0
aI0
aI0
aI0
aI0
aI0
aI0
aI0
aI0
aI0
aI0
aI0
aI0
aI0
aI0
aI0
aI0
aI0
aI0
aI0
aI0
aI0
aI0
aI0
aI0
aI0
aI0
aI0
aI0
aI0
aI0
aI0
aI0
aI0
aI0
aI0
aI0
aI0
aI0
aI0
aI0
aI0
aI0
aI0
aI0
aI0
aI0
aI0
aI0
aI0
aI0
aI0
aI0
aI0
aI0
aI0
aI0
aI0
aI0
aI0
aI0
aI0
aI0
aI0
aI0
aI0
aI0
aI0
aI0
aI0
aI0
aI0
aI0
aI0
aI0
aI0
aI0
aI0
aI0
aI0
aI0
aI0
aI0
aI0
aI0
aI0
aI0
aI0
aI0
aI0
aI0
aI0
aI0
asS'special_punctuation'
p6
(lp7
I0
aI2
aI2
aI0
aI6
aI0
aI0
aI0
aI2
aI0
aI2
aI2
aI0
aI8
aI2
aI0
aI0
aI0
aI0
aI2
aI8
aI0
aI0
aI0
aI0
aI4
aI0
aI0
aI0
aI0
aI6
aI0
aI0
aI0
aI0
aI2
aI0
aI0
aI0
aI0
aI0
aI0
aI0
aI2
aI2
aI0
aI0
aI4
aI8
aI0
aI0
aI4
aI0
aI0
aI2
aI2
aI2
aI8
aI2
aI4
aI2
aI0
aI0
aI0
aI0
aI0
aI0
aI0
aI2
aI6
aI0
aI0
aI0
aI0
aI0
aI0
aI0
aI2
aI4
aI0
aI0
aI0
aI0
aI0
aI0
aI0
aI0
aI12
aI0
aI2
aI0
aI0
aI8
aI0
aI0
aI2
aI0
aI0
aI0
aI0
aI0
aI0
aI0
aI0
aI0
aI0
aI0
aI0
aI0
aI6
aI28
aI0
aI0
aI4
aI2
aI2
aI0
aI0
aI0
aI0
aI2
aI2
aI0
aI2
aI0
aI0
aI0
aI0
aI0
aI0
aI0
aI0
aI2
aI0
aI0
aI6
aI0
aI0
aI4
aI2
aI4
aI0
aI0
aI2
aI0
aI0
aI2
aI0
aI0
aI4
aI0
aI0
aI0
aI0
aI0
aI0
aI0
aI0
aI0
aI0
aI0
aI10
aI2
aI4
aI0
aI0
aI0
aI0
aI14
aI0
aI4
aI0
aI2
aI2
aI0
aI8
aI0
aI0
aI0
aI0
aI0
aI0
aI2
aI0
aI0
aI0
aI4
aI2
aI0
aI0
aI0
aI0
aI0
aI8
aI2
aI2
aI0
aI0
aI0
aI0
aI0
aI8
aI0
aI0
aI0
aI0
aI0
aI0
aI2
aI0
aI0
aI0
aI4
aI0
aI0
aI2
aI0
aI0
aI0
aI4
aI2
aI0
aI0
aI2
aI4
aI0
aI0
aI10
aI0
aI0
aI4
aI0
aI0
aI2
aI2
aI8
aI2
aI2
aI0
aI2
aI0
aI0
aI0
aI0
aI2
aI0
aI0
aI2
aI0
aI0
aI0
aI0
aI0
aI0
aI0
aI0
aI0
aI0
aI0
aI0
aI6
aI0
aI4
aI2
aI6
aI2
aI12
aI0
aI2
aI2
aI2
aI4
aI0
aI0
aI0
aI0
aI0
aI0
aI0
aI10
aI0
aI0
aI4
aI0
aI0
aI0
aI0
aI0
aI0
aI0
aI0
aI0
aI0
aI0
aI0
aI2
aI0
aI0
aI0
aI0
aI0
aI2
aI0
aI0
aI0
aI2
aI4
aI0
aI0
aI8
aI2
aI0
aI0
aI0
aI0
aI0
aI0
aI0
aI0
aI4
aI0
aI0
aI0
aI0
aI0
aI2
aI0
aI4
aI0
aI2
aI0
aI0
aI0
aI2
aI8
aI0
aI0
aI8
aI4
aI0
aI0
aI6
aI0
aI2
aI0
aI0
aI0
aI8
aI6
aI0
aI0
aI0
aI2
aI2
aI2
aI0
aI8
aI2
aI0
aI0
aI0
aI0
aI0
aI0
aI0
aI2
aI0
aI2
aI6
aI0
aI2
aI2
aI2
aI8
aI2
aI0
aI0
aI0
aI0
aI2
aI2
aI0
aI0
aI0
aI0
aI0
aI0
aI0
aI0
aI0
aI0
aI4
aI0
aI4
aI0
aI4
aI0
aI0
aI0
aI0
aI0
aI4
aI8
aI0
aI0
aI8
aI2
aI0
aI6
aI0
aI2
aI0
aI4
aI2
aI0
aI2
aI2
aI0
aI10
aI0
aI2
aI0
aI0
aI4
aI6
aI0
aI0
aI2
aI0
aI0
aI0
aI0
aI0
aI2
aI0
aI2
aI6
aI2
aI4
aI0
aI0
aI0
aI0
aI0
aI0
aI0
aI0
aI0
aI0
aI0
aI0
aI0
aI0
aI2
aI0
aI0
aI0
aI0
aI0
aI0
aI2
aI0
aI2
aI0
aI0
aI0
aI0
aI0
aI0
aI2
aI0
aI0
aI0
aI4
aI4
aI0
aI2
aI0
aI0
aI2
aI0
aI0
aI0
aI0
aI8
aI0
aI0
aI4
aI2
aI0
aI2
aI6
aI4
aI0
aI2
aI4
aI6
aI0
aI2
aI0
aI0
aI0
aI10
aI20
aI6
aI0
aI0
aI0
aI4
aI0
aI2
aI2
aI0
aI0
aI2
aI0
aI0
aI2
aI2
aI0
aI0
aI0
aI0
aI2
aI0
aI2
aI0
aI2
aI4
aI0
aI0
aI0
aI0
aI0
aI2
aI6
aI0
aI0
aI2
aI0
aI0
aI0
aI0
aI0
aI0
aI0
aI0
aI0
aI0
aI0
aI0
aI0
aI8
aI2
aI2
aI8
aI4
aI0
aI2
aI2
aI6
aI4
aI0
aI0
aI0
aI0
aI0
aI2
aI0
aI0
aI0
aI0
aI4
aI2
aI0
aI8
aI14
aI2
aI0
aI0
aI14
aI2
aI0
aI8
aI0
aI0
aI0
aI0
aI0
aI8
aI0
aI0
aI6
aI4
aI4
aI0
aI6
aI6
aI0
aI0
aI0
aI0
aI0
aI0
aI0
aI0
aI4
aI0
aI0
aI0
aI2
aI0
aI0
aI2
aI0
aI2
aI4
aI0
aI0
aI2
aI4
aI0
aI0
aI6
aI0
aI0
aI0
aI0
aI2
aI0
aI2
aI0
aI0
aI2
aI4
aI4
aI4
aI0
aI0
aI4
aI4
aI0
aI0
aI4
aI20
aI0
aI4
aI0
aI0
aI4
aI0
aI0
aI0
aI0
aI0
aI0
aI0
aI4
aI0
aI0
aI0
aI0
aI0
aI0
aI2
aI6
aI0
aI4
aI2
aI0
aI10
aI4
aI8
aI0
aI4
aI0
aI0
aI0
aI0
aI0
aI0
aI0
aI6
aI4
aI0
aI0
aI0
aI0
aI0
aI0
aI0
aI0
aI4
aI0
aI0
aI2
aI2
aI0
aI0
aI0
aI2
aI2
aI2
aI0
aI2
aI0
aI0
aI2
aI0
aI0
aI0
aI0
aI0
aI0
aI2
aI10
aI0
aI0
aI4
aI6
aI4
aI12
aI0
aI0
aI4
aI0
aI2
aI0
aI2
aI2
aI0
aI0
aI2
aI0
aI0
aI4
aI8
aI0
aI4
aI2
aI0
aI0
aI2
aI2
aI0
aI0
aI0
aI0
aI0
aI0
aI2
aI18
aI0
aI8
aI4
aI2
aI0
aI2
aI0
aI0
aI0
aI4
aI2
aI2
aI0
aI6
aI0
aI0
aI0
aI0
aI2
aI0
aI0
aI0
aI2
aI0
aI0
aI0
aI2
aI0
aI0
aI0
aI0
aI4
aI0
aI0
aI0
aI16
aI4
aI0
aI0
aI0
aI6
aI2
aI4
aI6
aI0
aI14
aI12
aI2
aI2
aI0
aI2
aI0
aI0
aI0
aI0
aI2
aI0
aI2
aI0
aI2
aI0
aI0
aI0
aI0
aI4
aI12
aI0
aI4
aI2
aI0
aI4
aI0
aI38
aI2
aI0
aI0
aI6
aI0
aI2
aI2
aI0
aI0
aI4
aI0
aI2
aI2
aI0
aI0
aI0
aI0
aI4
aI0
aI0
aI6
aI4
aI4
aI0
aI0
aI0
aI8
aI0
aI4
aI6
aI0
aI0
aI0
aI0
aI0
aI2
aI4
aI0
aI0
aI0
aI4
aI4
aI0
aI0
aI0
aI4
aI0
aI0
aI0
aI0
aI0
aI2
aI16
aI0
aI6
aI0
aI0
aI0
aI2
aI0
aI6
aI0
aI0
aI4
aI2
aI0
aI0
aI0
aI4
aI4
aI0
aI0
aI0
aI0
aI0
aI0
aI4
aI0
aI0
aI6
aI0
aI4
aI2
aI4
aI4
aI0
aI0
aI0
aI0
aI0
aI2
aI0
aI0
aI4
aI0
aI2
aI0
aI0
aI0
aI4
aI6
aI0
aI0
aI4
aI0
aI2
aI4
aI0
aI0
aI0
aI0
aI0
aI0
aI2
aI2
aI0
aI2
aI0
aI2
aI0
aI2
aI2
aI2
aI0
aI0
aI0
aI4
aI6
aI0
aI10
aI4
aI0
aI0
aI2
aI10
aI0
aI0
aI0
aI0
aI0
aI4
aI2
aI2
aI2
aI0
aI6
aI0
aI10
aI4
aI8
aI6
aI0
aI0
aI4
aI2
aI2
aI0
aI0
aI0
aI0
aI0
aI6
aI0
aI2
aI0
aI0
aI2
aI0
aI0
aI0
aI12
aI0
aI8
aI2
aI4
aI10
aI0
aI0
aI0
aI0
aI0
aI0
aI2
aI0
aI18
aI2
aI0
aI0
aI0
aI2
aI0
aI0
aI0
aI0
aI0
aI0
aI4
aI0
aI2
aI0
aI10
aI0
aI6
aI0
aI4
aI4
aI2
aI0
aI0
aI2
aI6
aI2
aI2
aI0
aI0
aI6
aI8
aI6
aI0
aI2
aI0
aI0
aI0
aI0
aI2
aI4
aI0
aI0
aI4
aI2
aI0
aI0
aI0
aI6
aI0
aI2
aI0
aI0
aI0
aI4
aI4
aI6
aI0
aI0
aI0
aI0
aI4
aI0
aI4
aI4
aI2
aI4
aI0
aI6
aI0
aI0
aI0
aI0
aI0
aI0
aI4
aI0
aI2
aI0
aI6
aI2
aI4
aI0
aI0
aI4
aI2
aI4
aI0
aI0
aI0
aI6
asS'uppercase_words'
p8
(lp9
I0
aI0
aI0
aI0
aI0
aI0
aI0
aI0
aI0
aI0
aI0
aI0
aI0
aI2
aI0
aI0
aI2
aI0
aI0
aI0
aI1
aI0
aI0
aI0
aI0
aI0
aI0
aI0
aI0
aI0
aI2
aI0
aI0
aI0
aI0
aI0
aI0
aI0
aI1
aI0
aI0
aI0
aI0
aI0
aI0
aI0
aI0
aI6
aI0
aI0
aI0
aI0
aI2
aI0
aI0
aI0
aI0
aI0
aI1
aI0
aI1
aI0
aI0
aI0
aI0
aI0
aI0
aI0
aI0
aI4
aI0
aI0
aI0
aI3
aI0
aI0
aI0
aI1
aI0
aI0
aI1
aI0
aI0
aI0
aI0
aI0
aI0
aI0
aI0
aI0
aI0
aI2
aI0
aI0
aI0
aI1
aI0
aI0
aI1
aI0
aI1
aI0
aI0
aI0
aI0
aI2
aI0
aI0
aI0
aI0
aI2
aI0
aI0
aI2
aI1
aI0
aI0
aI0
aI1
aI1
aI0
aI20
aI1
aI0
aI0
aI1
aI0
aI0
aI0
aI0
aI0
aI0
aI0
aI1
aI0
aI0
aI0
aI1
aI0
aI0
aI0
aI0
aI0
aI2
aI0
aI1
aI0
aI0
aI1
aI0
aI0
aI0
aI3
aI1
aI0
aI0
aI0
aI1
aI0
aI0
aI0
aI1
aI0
aI0
aI0
aI0
aI0
aI0
aI0
aI0
aI8
aI0
aI0
aI0
aI0
aI2
aI0
aI0
aI0
aI0
aI0
aI0
aI0
aI0
aI0
aI0
aI0
aI0
aI0
aI0
aI0
aI0
aI0
aI0
aI0
aI0
aI0
aI0
aI1
aI0
aI0
aI0
aI0
aI0
aI3
aI0
aI0
aI0
aI1
aI0
aI0
aI0
aI1
aI0
aI0
aI0
aI0
aI1
aI0
aI1
aI0
aI0
aI0
aI0
aI0
aI0
aI0
aI0
aI1
aI1
aI0
aI0
aI0
aI0
aI0
aI0
aI0
aI0
aI0
aI0
aI5
aI0
aI0
aI0
aI0
aI0
aI0
aI0
aI0
aI0
aI0
aI0
aI0
aI0
aI0
aI0
aI1
aI0
aI0
aI0
aI2
aI0
aI0
aI1
aI0
aI0
aI0
aI3
aI0
aI0
aI2
aI0
aI0
aI0
aI0
aI0
aI0
aI0
aI0
aI2
aI0
aI0
aI0
aI0
aI0
aI0
aI0
aI0
aI0
aI0
aI1
aI0
aI0
aI1
aI1
aI1
aI0
aI0
aI0
aI0
aI0
aI0
aI0
aI0
aI0
aI0
aI0
aI1
aI1
aI0
aI0
aI0
aI0
aI1
aI0
aI0
aI0
aI0
aI0
aI0
aI1
aI0
aI1
aI0
aI1
aI0
aI0
aI1
aI0
aI0
aI2
aI0
aI0
aI0
aI0
aI1
aI3
aI0
aI0
aI0
aI0
aI1
aI0
aI0
aI0
aI0
aI1
aI0
aI8
aI0
aI1
aI0
aI0
aI0
aI0
aI0
aI1
aI0
aI0
aI1
aI0
aI0
aI0
aI0
aI0
aI0
aI0
aI0
aI0
aI0
aI1
aI0
aI1
aI0
aI0
aI15
aI0
aI0
aI0
aI1
aI0
aI0
aI0
aI0
aI2
aI0
aI0
aI0
aI0
aI0
aI0
aI0
aI0
aI0
aI0
aI0
aI0
aI0
aI1
aI1
aI0
aI1
aI0
aI0
aI0
aI0
aI0
aI0
aI0
aI0
aI0
aI0
aI0
aI0
aI0
aI0
aI0
aI0
aI0
aI0
aI0
aI0
aI0
aI1
aI1
aI0
aI1
aI0
aI0
aI0
aI0
aI0
aI0
aI0
aI0
aI0
aI0
aI0
aI1
aI0
aI0
aI0
aI0
aI0
aI0
aI0
aI0
aI0
aI0
aI0
aI1
aI0
aI0
aI0
aI0
aI0
aI0
aI0
aI0
aI0
aI0
aI0
aI0
aI3
aI1
aI0
aI0
aI0
aI0
aI0
aI0
aI0
aI0
aI0
aI1
aI0
aI0
aI0
aI0
aI0
aI0
aI0
aI0
aI0
aI0
aI0
aI0
aI0
aI0
aI0
aI0
aI2
aI0
aI0
aI0
aI0
aI1
aI0
aI0
aI0
aI4
aI0
aI1
aI2
aI0
aI1
aI0
aI0
aI0
aI1
aI0
aI0
aI0
aI0
aI0
aI0
aI0
aI0
aI0
aI1
aI0
aI0
aI0
aI1
aI0
aI0
aI0
aI0
aI0
aI0
aI0
aI0
aI0
aI0
aI0
aI1
aI0
aI2
aI0
aI1
aI0
aI0
aI0
aI0
aI0
aI0
aI0
aI0
aI0
aI0
aI0
aI1
aI0
aI3
aI0
aI1
aI0
aI0
aI0
aI0
aI0
aI1
aI0
aI0
aI0
aI0
aI0
aI0
aI0
aI0
aI0
aI1
aI0
aI0
aI0
aI0
aI0
aI0
aI1
aI0
aI1
aI0
aI0
aI0
aI0
aI0
aI2
aI2
aI0
aI1
aI1
aI0
aI0
aI0
aI1
aI0
aI0
aI3
aI0
aI1
aI0
aI0
aI0
aI0
aI1
aI0
aI0
aI1
aI0
aI0
aI1
aI0
aI0
aI1
aI0
aI0
aI0
aI0
aI0
aI0
aI0
aI0
aI2
aI0
aI0
aI0
aI0
aI2
aI0
aI0
aI1
aI0
aI0
aI0
aI0
aI0
aI0
aI0
aI0
aI1
aI1
aI0
aI0
aI1
aI0
aI0
aI0
aI0
aI0
aI0
aI0
aI0
aI2
aI1
aI1
aI0
aI0
aI0
aI0
aI0
aI0
aI0
aI0
aI0
aI0
aI4
aI0
aI0
aI0
aI0
aI18
aI0
aI0
aI0
aI7
aI0
aI0
aI1
aI2
aI1
aI0
aI0
aI0
aI0
aI0
aI0
aI0
aI1
aI0
aI0
aI0
aI0
aI0
aI0
aI1
aI0
aI0
aI0
aI2
aI0
aI0
aI0
aI0
aI0
aI2
aI1
aI0
aI0
aI0
aI9
aI0
aI0
aI1
aI0
aI0
aI0
aI0
aI0
aI0
aI0
aI0
aI2
aI6
aI0
aI0
aI0
aI0
aI0
aI0
aI0
aI0
aI1
aI3
aI1
aI0
aI0
aI0
aI0
aI0
aI0
aI0
aI0
aI0
aI0
aI1
aI0
aI0
aI0
aI0
aI1
aI0
aI0
aI0
aI0
aI0
aI0
aI0
aI0
aI0
aI0
aI0
aI1
aI0
aI0
aI0
aI0
aI0
aI1
aI0
aI0
aI1
aI0
aI0
aI0
aI1
aI0
aI0
aI0
aI1
aI1
aI5
aI0
aI0
aI0
aI0
aI0
aI0
aI2
aI0
aI2
aI0
aI0
aI0
aI0
aI0
aI0
aI0
aI4
aI0
aI0
aI1
aI1
aI0
aI2
aI1
aI0
aI3
aI0
aI0
aI2
aI0
aI0
aI0
aI1
aI0
aI1
aI1
aI2
aI0
aI1
aI1
aI0
aI0
aI0
aI0
aI0
aI1
aI0
aI0
aI0
aI0
aI0
aI0
aI0
aI0
aI0
aI1
aI0
aI0
aI0
aI0
aI0
aI0
aI0
aI0
aI0
aI0
aI0
aI0
aI3
aI0
aI0
aI0
aI2
aI0
aI0
aI0
aI0
aI0
aI0
aI0
aI1
aI0
aI0
aI1
aI0
aI0
aI0
aI0
aI0
aI0
aI0
aI0
aI0
aI0
aI0
aI1
aI8
aI0
aI2
aI0
aI0
aI0
aI0
aI3
aI0
aI0
aI1
aI5
aI1
aI0
aI0
aI0
aI0
aI0
aI1
aI0
aI0
aI3
aI0
aI1
aI0
aI0
aI0
aI1
aI1
aI0
aI2
aI0
aI0
aI0
aI0
aI0
aI0
aI0
aI0
aI0
aI0
aI1
aI0
aI0
aI0
aI0
aI0
aI0
aI0
aI0
aI0
aI0
aI0
aI0
aI0
aI0
aI0
aI0
aI0
aI0
aI0
aI0
aI0
aI2
aI0
aI0
aI0
aI1
aI0
aI0
aI1
aI1
aI0
aI0
aI0
aI2
aI0
aI0
aI1
aI0
aI0
aI1
aI1
aI0
aI0
aI0
aI0
aI0
aI0
aI0
aI0
aI0
aI0
aI1
aI0
aI0
aI0
aI0
aI0
aI0
aI0
aI0
aI0
aI2
aI1
aI0
aI0
aI0
aI0
aI0
aI0
aI2
aI0
aI0
aI0
aI1
aI0
aI0
aI1
aI0
aI0
aI1
aI1
aI0
aI0
aI0
aI0
aI0
aI1
aI0
aI0
aI0
aI0
aI0
aI0
aI0
aI0
aI0
aI0
aI0
aI0
aI0
aI0
aI0
aI0
aI0
aI0
aI0
aI0
aI1
aI0
aI0
aI0
aI0
aI0
aI0
aI1
aI0
aI0
aI0
aI1
aI1
aI0
aI4
aI4
aI11
aI23
aI0
aI0
aI0
aI0
aI0
aI0
aI0
aI2
aI0
aI1
aI0
aI1
aI0
aI5
aI2
aI2
aI0
aI25
aI0
aI0
aI0
aI0
aI0
aI0
aI1
aI0
aI0
aI0
aI0
aI0
aI0
aI0
aI1
aI0
aI0
aI0
aI0
aI0
aI0
aI0
aI0
aI0
aI0
aI0
aI0
aI0
aI0
aI0
aI0
aI0
aI1
aI0
aI1
aI0
aI0
aI0
aI1
asS'negative_words'
p10
(lp11
I0
aI0
aI2
aI0
aI1
aI1
aI0
aI0
aI0
aI0
aI3
aI2
aI0
aI3
aI0
aI1
aI2
aI0
aI0
aI1
aI0
aI1
aI0
aI0
aI1
aI0
aI0
aI0
aI0
aI4
aI2
aI0
aI0
aI1
aI2
aI0
aI1
aI1
aI0
aI0
aI0
aI2
aI2
aI2
aI0
aI1
aI1
aI0
aI1
aI0
aI1
aI0
aI1
aI1
aI0
aI1
aI0
aI4
aI1
aI1
aI0
aI0
aI0
aI1
aI1
aI0
aI0
aI0
aI0
aI1
aI1
aI2
aI0
aI0
aI0
aI0
aI0
aI1
aI0
aI1
aI0
aI1
aI1
aI0
aI1
aI1
aI1
aI1
aI1
aI0
aI1
aI0
aI1
aI0
aI1
aI1
aI0
aI1
aI1
aI0
aI2
aI1
aI1
aI0
aI0
aI2
aI0
aI0
aI1
aI0
aI0
aI0
aI0
aI0
aI2
aI1
aI2
aI0
aI1
aI0
aI0
aI0
aI2
aI0
aI1
aI0
aI0
aI0
aI2
aI0
aI2
aI1
aI0
aI0
aI0
aI0
aI1
aI0
aI0
aI0
aI1
aI1
aI0
aI0
aI0
aI3
aI0
aI0
aI1
aI0
aI0
aI0
aI0
aI0
aI1
aI0
aI1
aI1
aI1
aI1
aI0
aI0
aI1
aI2
aI0
aI0
aI1
aI2
aI3
aI0
aI0
aI0
aI0
aI1
aI1
aI2
aI0
aI0
aI1
aI0
aI1
aI1
aI1
aI2
aI2
aI1
aI0
aI0
aI1
aI0
aI0
aI0
aI0
aI0
aI0
aI2
aI0
aI1
aI1
aI0
aI1
aI0
aI0
aI1
aI2
aI0
aI0
aI0
aI0
aI1
aI0
aI0
aI0
aI1
aI0
aI0
aI1
aI0
aI0
aI1
aI1
aI1
aI1
aI2
aI1
aI1
aI2
aI0
aI0
aI0
aI0
aI0
aI3
aI0
aI0
aI0
aI2
aI2
aI1
aI0
aI0
aI1
aI0
aI0
aI1
aI0
aI1
aI1
aI1
aI0
aI0
aI0
aI2
aI0
aI0
aI0
aI0
aI1
aI1
aI1
aI0
aI0
aI3
aI1
aI0
aI0
aI0
aI2
aI3
aI2
aI2
aI0
aI0
aI1
aI0
aI0
aI1
aI3
aI0
aI2
aI0
aI1
aI1
aI1
aI0
aI0
aI3
aI1
aI1
aI1
aI1
aI2
aI0
aI2
aI1
aI0
aI0
aI0
aI1
aI1
aI2
aI2
aI0
aI0
aI0
aI1
aI2
aI1
aI1
aI1
aI2
aI1
aI0
aI0
aI0
aI1
aI1
aI0
aI0
aI2
aI1
aI0
aI1
aI0
aI2
aI1
aI2
aI0
aI0
aI0
aI1
aI1
aI0
aI0
aI0
aI1
aI0
aI1
aI0
aI1
aI1
aI0
aI0
aI2
aI1
aI0
aI2
aI1
aI2
aI0
aI0
aI1
aI2
aI0
aI1
aI0
aI0
aI1
aI2
aI1
aI1
aI1
aI0
aI3
aI0
aI1
aI0
aI0
aI0
aI0
aI0
aI1
aI0
aI1
aI0
aI0
aI1
aI1
aI1
aI0
aI0
aI1
aI0
aI0
aI0
aI1
aI1
aI1
aI1
aI1
aI2
aI2
aI0
aI1
aI0
aI1
aI3
aI1
aI0
aI1
aI1
aI2
aI0
aI0
aI0
aI0
aI0
aI1
aI1
aI1
aI2
aI0
aI0
aI1
aI2
aI0
aI0
aI0
aI0
aI0
aI3
aI0
aI0
aI0
aI0
aI0
aI0
aI0
aI2
aI0
aI2
aI1
aI2
aI2
aI1
aI1
aI0
aI0
aI2
aI0
aI1
aI1
aI1
aI0
aI1
aI1
aI1
aI1
aI1
aI1
aI0
aI1
aI0
aI0
aI0
aI1
aI1
aI2
aI0
aI0
aI0
aI0
aI0
aI0
aI0
aI0
aI0
aI0
aI0
aI0
aI0
aI0
aI0
aI0
aI0
aI0
aI1
aI3
aI1
aI0
aI0
aI1
aI1
aI0
aI1
aI2
aI0
aI0
aI0
aI0
aI0
aI0
aI1
aI1
aI1
aI1
aI1
aI0
aI1
aI0
aI0
aI0
aI1
aI0
aI0
aI0
aI0
aI0
aI2
aI0
aI0
aI0
aI1
aI0
aI0
aI0
aI0
aI0
aI1
aI0
aI0
aI0
aI0
aI0
aI0
aI1
aI3
aI0
aI0
aI2
aI1
aI0
aI0
aI2
aI0
aI1
aI0
aI1
aI0
aI0
aI0
aI1
aI0
aI1
aI0
aI0
aI0
aI1
aI1
aI1
aI0
aI0
aI0
aI1
aI0
aI1
aI3
aI0
aI0
aI0
aI0
aI0
aI2
aI0
aI0
aI1
aI0
aI0
aI0
aI1
aI1
aI0
aI0
aI0
aI0
aI0
aI0
aI0
aI0
aI0
aI0
aI0
aI0
aI1
aI0
aI0
aI0
aI1
aI1
aI0
aI0
aI0
aI0
aI1
aI0
aI0
aI1
aI0
aI0
aI0
aI0
aI0
aI0
aI1
aI0
aI0
aI0
aI0
aI0
aI0
aI0
aI1
aI1
aI0
aI0
aI0
aI0
aI0
aI2
aI0
aI0
aI1
aI0
aI0
aI0
aI0
aI0
aI0
aI0
aI1
aI0
aI0
aI0
aI0
aI0
aI1
aI0
aI0
aI0
aI1
aI1
aI0
aI1
aI0
aI0
aI0
aI1
aI1
aI1
aI0
aI2
aI0
aI0
aI0
aI0
aI0
aI0
aI1
aI0
aI0
aI0
aI0
aI0
aI0
aI3
aI0
aI1
aI0
aI0
aI0
aI0
aI0
aI0
aI1
aI0
aI2
aI0
aI0
aI1
aI1
aI0
aI0
aI0
aI2
aI0
aI0
aI1
aI0
aI0
aI0
aI0
aI0
aI0
aI0
aI0
aI0
aI0
aI0
aI0
aI0
aI0
aI0
aI0
aI0
aI0
aI0
aI1
aI0
aI0
aI0
aI0
aI0
aI1
aI0
aI1
aI0
aI0
aI0
aI0
aI1
aI0
aI0
aI0
aI0
aI0
aI0
aI0
aI1
aI0
aI0
aI0
aI1
aI0
aI0
aI1
aI0
aI0
aI0
aI1
aI0
aI0
aI0
aI1
aI1
aI0
aI0
aI2
aI0
aI1
aI2
aI0
aI0
aI0
aI0
aI0
aI0
aI1
aI0
aI1
aI1
aI0
aI0
aI0
aI1
aI0
aI0
aI2
aI0
aI1
aI0
aI0
aI0
aI0
aI0
aI0
aI0
aI0
aI2
aI0
aI0
aI0
aI1
aI0
aI0
aI1
aI0
aI0
aI0
aI0
aI0
aI0
aI0
aI0
aI1
aI0
aI1
aI1
aI1
aI0
aI0
aI0
aI0
aI0
aI1
aI0
aI0
aI1
aI1
aI0
aI2
aI0
aI0
aI0
aI0
aI0
aI0
aI0
aI0
aI0
aI0
aI2
aI0
aI2
aI0
aI0
aI0
aI0
aI0
aI0
aI0
aI0
aI0
aI0
aI0
aI0
aI0
aI0
aI0
aI0
aI0
aI0
aI0
aI0
aI0
aI0
aI0
aI0
aI0
aI0
aI1
aI0
aI0
aI1
aI0
aI0
aI1
aI0
aI0
aI0
aI0
aI1
aI0
aI0
aI0
aI0
aI0
aI2
aI1
aI1
aI0
aI0
aI1
aI0
aI0
aI0
aI0
aI0
aI0
aI0
aI0
aI0
aI0
aI0
aI2
aI0
aI0
aI0
aI0
aI1
aI0
aI0
aI1
aI0
aI0
aI0
aI1
aI0
aI1
aI0
aI0
aI0
aI0
aI0
aI0
aI1
aI1
aI0
aI0
aI0
aI0
aI0
aI0
aI0
aI0
aI0
aI0
aI0
aI1
aI0
aI0
aI0
aI0
aI0
aI0
aI0
aI1
aI0
aI2
aI1
aI0
aI0
aI0
aI0
aI0
aI1
aI2
aI0
aI2
aI0
aI0
aI2
aI0
aI0
aI1
aI0
aI0
aI0
aI0
aI0
aI1
aI0
aI1
aI0
aI0
aI0
aI1
aI0
aI0
aI0
aI0
aI0
aI0
aI1
aI1
aI0
aI0
aI0
aI2
aI0
aI0
aI0
aI0
aI1
aI0
aI2
aI0
aI0
aI0
aI0
aI0
aI1
aI0
aI1
aI0
aI0
aI0
aI1
aI0
aI0
aI0
aI0
aI0
aI1
aI1
aI0
aI0
aI0
aI0
aI0
aI1
aI0
aI0
aI0
aI0
aI1
aI2
aI0
aI1
aI0
aI1
aI0
aI1
aI2
aI0
aI0
aI0
aI0
aI0
aI0
aI0
aI0
aI0
aI0
aI0
aI0
aI1
aI0
aI1
aI0
aI1
aI0
aI1
aI1
aI0
aI0
aI0
aI0
aI0
aI0
aI0
aI0
aI0
aI0
aI0
aI3
aI1
aI0
aI0
aI0
aI0
aI0
aI1
aI0
aI0
aI0
aI0
aI0
aI0
aI0
aI0
aI0
aI0
aI1
aI0
aI0
aI1
aI0
aI0
aI0
aI1
aI0
aI0
aI0
aI0
aI0
aI0
aI0
aI0
aI0
aI0
aI0
aI0
aI0
aI1
aI0
aI1
aI1
aI1
aI0
aI0
aI0
aI0
aI0
aI1
aI0
aI0
aI0
aI0
aI0
aI0
aI0
asS'positive_words'
p12
(lp13
I0
aI1
aI2
aI1
aI0
aI2
aI0
aI2
aI0
aI0
aI1
aI3
aI3
aI2
aI1
aI0
aI1
aI0
aI0
aI1
aI0
aI0
aI0
aI1
aI0
aI0
aI1
aI0
aI0
aI0
aI0
aI0
aI1
aI1
aI0
aI0
aI0
aI1
aI0
aI0
aI2
aI0
aI1
aI1
aI1
aI0
aI1
aI0
aI1
aI1
aI4
aI1
aI1
aI1
aI3
aI1
aI0
aI0
aI2
aI0
aI2
aI0
aI0
aI1
aI0
aI0
aI0
aI0
aI0
aI0
aI1
aI1
aI1
aI0
aI0
aI3
aI1
aI0
aI2
aI0
aI1
aI0
aI0
aI2
aI1
aI0
aI3
aI0
aI0
aI1
aI0
aI0
aI0
aI0
aI0
aI1
aI0
aI3
aI0
aI0
aI0
aI2
aI0
aI1
aI1
aI0
aI0
aI1
aI0
aI1
aI1
aI3
aI1
aI2
aI0
aI0
aI0
aI0
aI0
aI1
aI1
aI1
aI2
aI1
aI2
aI0
aI1
aI1
aI0
aI0
aI2
aI0
aI0
aI0
aI0
aI0
aI1
aI2
aI1
aI0
aI0
aI0
aI1
aI2
aI1
aI2
aI1
aI0
aI0
aI0
aI0
aI0
aI1
aI0
aI2
aI0
aI1
aI2
aI1
aI0
aI0
aI1
aI2
aI0
aI1
aI0
aI0
aI1
aI1
aI0
aI1
aI0
aI0
aI0
aI2
aI1
aI2
aI1
aI1
aI2
aI1
aI1
aI1
aI1
aI1
aI0
aI2
aI0
aI1
aI0
aI6
aI0
aI2
aI0
aI1
aI1
aI0
aI0
aI2
aI2
aI1
aI5
aI1
aI0
aI2
aI0
aI0
aI0
aI0
aI0
aI0
aI1
aI2
aI2
aI1
aI0
aI1
aI0
aI0
aI0
aI0
aI0
aI0
aI1
aI2
aI0
aI5
aI0
aI2
aI2
aI1
aI0
aI0
aI3
aI1
aI2
aI1
aI1
aI1
aI0
aI1
aI3
aI0
aI0
aI0
aI0
aI1
aI0
aI0
aI0
aI0
aI0
aI0
aI0
aI1
aI0
aI2
aI2
aI1
aI1
aI1
aI1
aI1
aI0
aI0
aI0
aI2
aI1
aI1
aI0
aI1
aI1
aI1
aI0
aI0
aI0
aI2
aI0
aI1
aI0
aI0
aI0
aI3
aI0
aI0
aI0
aI1
aI1
aI0
aI2
aI0
aI1
aI0
aI0
aI0
aI1
aI2
aI0
aI0
aI0
aI0
aI0
aI0
aI2
aI2
aI0
aI1
aI2
aI0
aI1
aI2
aI1
aI1
aI1
aI1
aI0
aI1
aI0
aI0
aI2
aI1
aI2
aI0
aI0
aI0
aI2
aI1
aI0
aI0
aI1
aI2
aI0
aI0
aI0
aI0
aI0
aI1
aI0
aI0
aI1
aI0
aI1
aI1
aI0
aI1
aI3
aI0
aI1
aI1
aI2
aI0
aI0
aI2
aI0
aI3
aI1
aI0
aI1
aI0
aI0
aI1
aI1
aI1
aI0
aI0
aI0
aI0
aI1
aI1
aI1
aI2
aI0
aI3
aI1
aI2
aI0
aI1
aI1
aI1
aI2
aI0
aI3
aI2
aI0
aI2
aI0
aI1
aI3
aI1
aI2
aI0
aI2
aI0
aI1
aI0
aI0
aI1
aI3
aI0
aI1
aI1
aI1
aI3
aI3
aI1
aI0
aI1
aI1
aI1
aI1
aI1
aI1
aI2
aI1
aI0
aI2
aI0
aI0
aI0
aI1
aI0
aI0
aI1
aI0
aI1
aI1
aI1
aI2
aI0
aI0
aI0
aI0
aI0
aI1
aI0
aI1
aI0
aI2
aI0
aI0
aI0
aI1
aI1
aI1
aI1
aI0
aI0
aI0
aI1
aI1
aI2
aI4
aI4
aI3
aI0
aI1
aI3
aI0
aI0
aI0
aI1
aI0
aI2
aI2
aI1
aI0
aI1
aI2
aI1
aI0
aI1
aI0
aI1
aI0
aI2
aI0
aI3
aI1
aI3
aI2
aI0
aI2
aI0
aI1
aI0
aI1
aI3
aI0
aI0
aI3
aI1
aI2
aI0
aI1
aI1
aI0
aI1
aI0
aI2
aI1
aI1
aI0
aI1
aI3
aI0
aI0
aI0
aI2
aI0
aI0
aI0
aI2
aI0
aI1
aI4
aI4
aI1
aI0
aI0
aI0
aI1
aI1
aI1
aI2
aI3
aI1
aI1
aI0
aI3
aI1
aI2
aI0
aI1
aI2
aI0
aI1
aI0
aI2
aI3
aI0
aI0
aI1
aI1
aI0
aI0
aI1
aI0
aI0
aI1
aI1
aI0
aI0
aI1
aI1
aI4
aI1
aI1
aI2
aI2
aI1
aI0
aI2
aI1
aI4
aI1
aI1
aI1
aI1
aI1
aI0
aI2
aI1
aI0
aI1
aI1
aI2
aI4
aI1
aI1
aI2
aI0
aI0
aI1
aI1
aI2
aI1
aI1
aI3
aI2
aI1
aI0
aI0
aI1
aI1
aI1
aI3
aI0
aI0
aI2
aI1
aI1
aI0
aI4
aI1
aI1
aI1
aI0
aI1
aI1
aI1
aI1
aI1
aI1
aI0
aI0
aI4
aI0
aI1
aI0
aI1
aI0
aI0
aI0
aI1
aI0
aI3
aI2
aI1
aI2
aI3
aI1
aI1
aI1
aI0
aI0
aI3
aI2
aI1
aI0
aI1
aI0
aI0
aI0
aI1
aI1
aI2
aI2
aI1
aI2
aI0
aI2
aI0
aI3
aI0
aI0
aI0
aI0
aI1
aI1
aI1
aI0
aI1
aI3
aI1
aI0
aI1
aI1
aI0
aI0
aI4
aI0
aI1
aI1
aI3
aI0
aI0
aI0
aI1
aI0
aI1
aI1
aI0
aI0
aI1
aI0
aI2
aI0
aI1
aI3
aI2
aI2
aI3
aI3
aI2
aI2
aI1
aI1
aI1
aI1
aI2
aI1
aI1
aI0
aI1
aI1
aI1
aI0
aI1
aI0
aI0
aI2
aI1
aI1
aI0
aI3
aI0
aI2
aI0
aI0
aI1
aI2
aI3
aI1
aI0
aI2
aI2
aI2
aI1
aI0
aI1
aI0
aI2
aI1
aI1
aI1
aI1
aI0
aI0
aI2
aI0
aI1
aI0
aI1
aI3
aI2
aI1
aI0
aI1
aI1
aI2
aI1
aI0
aI2
aI1
aI0
aI3
aI0
aI3
aI2
aI0
aI1
aI1
aI1
aI2
aI1
aI2
aI1
aI0
aI2
aI1
aI3
aI1
aI0
aI2
aI0
aI1
aI1
aI0
aI4
aI1
aI0
aI1
aI2
aI2
aI0
aI2
aI1
aI0
aI2
aI0
aI1
aI1
aI1
aI2
aI0
aI1
aI3
aI4
aI1
aI1
aI1
aI1
aI3
aI0
aI2
aI1
aI2
aI0
aI3
aI0
aI1
aI0
aI1
aI1
aI1
aI1
aI1
aI4
aI3
aI1
aI1
aI0
aI3
aI1
aI1
aI1
aI1
aI0
aI2
aI2
aI3
aI0
aI1
aI0
aI0
aI3
aI1
aI0
aI1
aI1
aI3
aI0
aI1
aI1
aI1
aI2
aI1
aI0
aI0
aI0
aI1
aI0
aI1
aI1
aI3
aI1
aI1
aI0
aI0
aI0
aI1
aI1
aI0
aI0
aI2
aI2
aI1
aI1
aI0
aI0
aI4
aI1
aI1
aI1
aI2
aI3
aI1
aI0
aI1
aI0
aI2
aI1
aI0
aI1
aI0
aI0
aI2
aI2
aI1
aI3
aI1
aI1
aI1
aI1
aI1
aI0
aI0
aI1
aI2
aI1
aI0
aI1
aI1
aI0
aI0
aI0
aI1
aI0
aI1
aI1
aI0
aI0
aI2
aI0
aI0
aI1
aI0
aI1
aI1
aI3
aI0
aI0
aI0
aI1
aI2
aI3
aI0
aI0
aI2
aI2
aI0
aI4
aI1
aI2
aI0
aI4
aI1
aI0
aI0
aI1
aI0
aI0
aI3
aI1
aI1
aI0
aI1
aI3
aI0
aI1
aI1
aI0
aI3
aI1
aI1
aI4
aI2
aI2
aI1
aI1
aI0
aI6
aI3
aI1
aI2
aI4
aI2
aI0
aI2
aI1
aI0
aI2
aI0
aI4
aI0
aI2
aI0
aI1
aI1
aI2
aI0
aI1
aI1
aI3
aI0
aI4
aI1
aI0
aI1
aI1
aI0
aI0
aI0
aI0
aI2
aI0
aI0
aI0
aI1
aI2
aI2
aI0
aI3
aI1
aI2
aI1
aI2
aI0
aI0
aI4
aI1
aI2
aI3
aI3
aI1
aI1
aI0
aI1
aI0
aI1
aI0
aI1
aI2
aI1
aI1
aI0
aI1
aI2
aI2
aI2
aI1
aI1
aI1
aI0
aI3
aI1
aI0
aI1
aI1
aI1
aI2
aI0
aI1
aI0
aI0
aI0
aI0
aI0
aI0
aI1
aI1
aI1
aI0
aI1
aI3
aI0
aI3
aI0
aI1
aI2
aI1
aI0
aI0
aI1
aI2
aI4
aI1
aI1
aI0
aI1
aI3
aI2
aI3
aI1
aI1
aI0
aI0
aI1
aI1
aI1
aI2
aI0
aI2
aI0
aI0
aI0
aI1
aI1
aI5
aI2
aI0
aI0
aI1
aI1
aI0
aI1
aI1
aI3
aI0
aI2
aI4
asS'adjectives'
p14
(lp15
I0
aI0
aI1
aI2
aI2
aI0
aI1
aI1
aI0
aI1
aI2
aI0
aI1
aI1
aI2
aI0
aI2
aI0
aI0
aI2
aI1
aI2
aI1
aI5
aI1
aI0
aI2
aI0
aI1
aI1
aI2
aI0
aI1
aI3
aI0
aI2
aI1
aI0
aI0
aI0
aI3
aI3
aI1
aI0
aI0
aI0
aI0
aI2
aI1
aI0
aI1
aI2
aI0
aI3
aI6
aI2
aI1
aI3
aI2
aI3
aI0
aI0
aI1
aI2
aI1
aI0
aI0
aI0
aI0
aI1
aI2
aI0
aI1
aI1
aI1
aI0
aI0
aI4
aI3
aI0
aI1
aI3
aI1
aI0
aI1
aI1
aI3
aI1
aI1
aI0
aI2
aI0
aI3
aI1
aI1
aI0
aI1
aI1
aI0
aI0
aI1
aI2
aI0
aI1
aI4
aI1
aI0
aI1
aI3
aI1
aI1
aI2
aI1
aI1
aI1
aI2
aI0
aI0
aI2
aI3
aI0
aI3
aI1
aI2
aI4
aI1
aI0
aI0
aI1
aI0
aI4
aI1
aI1
aI0
aI0
aI0
aI1
aI2
aI0
aI1
aI2
aI2
aI0
aI0
aI1
aI3
aI0
aI1
aI0
aI1
aI0
aI1
aI1
aI2
aI2
aI1
aI2
aI2
aI2
aI0
aI2
aI1
aI3
aI1
aI4
aI1
aI0
aI1
aI0
aI0
aI0
aI0
aI0
aI2
aI2
aI2
aI1
aI0
aI1
aI1
aI1
aI2
aI1
aI3
aI1
aI0
aI1
aI1
aI1
aI1
aI1
aI0
aI0
aI1
aI2
aI4
aI1
aI0
aI4
aI0
aI1
aI3
aI1
aI0
aI1
aI2
aI2
aI0
aI1
aI1
aI2
aI2
aI1
aI2
aI3
aI2
aI0
aI1
aI1
aI2
aI0
aI0
aI2
aI0
aI1
aI3
aI0
aI0
aI3
aI0
aI3
aI1
aI2
aI1
aI1
aI0
aI2
aI2
aI1
aI1
aI1
aI1
aI2
aI1
aI1
aI0
aI0
aI1
aI0
aI0
aI0
aI0
aI0
aI2
aI1
aI1
aI2
aI2
aI0
aI2
aI0
aI1
aI2
aI2
aI0
aI0
aI2
aI0
aI2
aI1
aI2
aI2
aI0
aI0
aI0
aI2
aI3
aI2
aI1
aI0
aI1
aI0
aI2
aI0
aI0
aI0
aI2
aI0
aI0
aI1
aI1
aI2
aI0
aI0
aI0
aI0
aI2
aI0
aI0
aI0
aI0
aI1
aI0
aI0
aI2
aI1
aI2
aI0
aI0
aI1
aI1
aI1
aI3
aI1
aI2
aI0
aI2
aI0
aI0
aI2
aI1
aI1
aI2
aI1
aI1
aI1
aI2
aI1
aI0
aI0
aI4
aI0
aI2
aI1
aI0
aI2
aI5
aI2
aI1
aI2
aI1
aI0
aI1
aI3
aI2
aI1
aI1
aI0
aI2
aI1
aI1
aI2
aI3
aI0
aI1
aI2
aI1
aI0
aI1
aI3
aI1
aI1
aI1
aI2
aI1
aI1
aI0
aI0
aI2
aI2
aI1
aI1
aI2
aI4
aI1
aI0
aI2
aI2
aI0
aI0
aI0
aI2
aI2
aI0
aI2
aI1
aI1
aI2
aI2
aI3
aI0
aI1
aI0
aI2
aI3
aI0
aI2
aI3
aI1
aI2
aI2
aI0
aI1
aI1
aI1
aI0
aI3
aI0
aI1
aI0
aI2
aI2
aI3
aI3
aI3
aI0
aI2
aI1
aI0
aI0
aI0
aI0
aI2
aI5
aI1
aI2
aI2
aI4
aI1
aI0
aI3
aI0
aI0
aI5
aI1
aI2
aI1
aI2
aI1
aI0
aI0
aI3
aI0
aI2
aI1
aI1
aI0
aI2
aI0
aI0
aI1
aI4
aI2
aI3
aI0
aI3
aI3
aI2
aI0
aI1
aI0
aI3
aI3
aI2
aI4
aI1
aI1
aI3
aI0
aI0
aI1
aI0
aI1
aI1
aI0
aI0
aI2
aI0
aI2
aI3
aI0
aI3
aI1
aI3
aI0
aI3
aI1
aI0
aI0
aI0
aI0
aI3
aI0
aI2
aI2
aI1
aI0
aI2
aI3
aI2
aI1
aI1
aI1
aI4
aI1
aI1
aI1
aI0
aI0
aI1
aI2
aI1
aI1
aI1
aI1
aI2
aI1
aI1
aI1
aI0
aI0
aI0
aI0
aI0
aI3
aI1
aI2
aI1
aI3
aI2
aI0
aI0
aI1
aI0
aI1
aI1
aI0
aI1
aI4
aI0
aI1
aI1
aI3
aI2
aI2
aI2
aI2
aI3
aI3
aI2
aI1
aI0
aI2
aI1
aI2
aI1
aI2
aI0
aI2
aI2
aI0
aI2
aI0
aI2
aI1
aI3
aI0
aI3
aI0
aI0
aI1
aI0
aI0
aI1
aI0
aI0
aI3
aI0
aI0
aI1
aI1
aI0
aI4
aI0
aI0
aI3
aI1
aI0
aI1
aI1
aI1
aI0
aI1
aI0
aI0
aI2
aI0
aI2
aI2
aI0
aI1
aI3
aI2
aI0
aI0
aI0
aI3
aI1
aI1
aI2
aI2
aI1
aI0
aI1
aI0
aI2
aI1
aI1
aI0
aI0
aI0
aI2
aI0
aI1
aI0
aI1
aI2
aI1
aI1
aI3
aI3
aI2
aI1
aI0
aI2
aI2
aI2
aI1
aI1
aI1
aI1
aI1
aI0
aI1
aI0
aI0
aI1
aI2
aI2
aI0
aI0
aI0
aI3
aI0
aI1
aI1
aI4
aI1
aI3
aI1
aI0
aI1
aI2
aI0
aI1
aI3
aI1
aI1
aI0
aI2
aI1
aI2
aI3
aI2
aI4
aI0
aI0
aI0
aI0
aI1
aI0
aI0
aI0
aI1
aI2
aI0
aI0
aI3
aI1
aI0
aI2
aI0
aI2
aI1
aI0
aI4
aI1
aI0
aI0
aI4
aI2
aI2
aI1
aI1
aI1
aI2
aI1
aI2
aI0
aI1
aI2
aI0
aI0
aI1
aI1
aI1
aI1
aI0
aI3
aI1
aI1
aI3
aI4
aI0
aI2
aI3
aI1
aI1
aI3
aI0
aI1
aI1
aI0
aI1
aI0
aI0
aI1
aI2
aI3
aI0
aI2
aI0
aI0
aI3
aI2
aI1
aI3
aI2
aI1
aI1
aI2
aI0
aI1
aI2
aI3
aI1
aI1
aI1
aI2
aI0
aI2
aI5
aI1
aI1
aI5
aI1
aI1
aI0
aI2
aI0
aI3
aI0
aI0
aI1
aI0
aI0
aI2
aI3
aI0
aI0
aI1
aI1
aI3
aI0
aI4
aI2
aI1
aI0
aI0
aI0
aI1
aI2
aI1
aI2
aI0
aI1
aI4
aI0
aI2
aI2
aI1
aI0
aI1
aI3
aI3
aI2
aI1
aI1
aI2
aI0
aI2
aI2
aI0
aI1
aI1
aI2
aI0
aI2
aI3
aI1
aI1
aI1
aI0
aI0
aI1
aI1
aI3
aI0
aI1
aI1
aI1
aI1
aI3
aI0
aI1
aI1
aI2
aI0
aI0
aI1
aI0
aI0
aI1
aI2
aI0
aI1
aI0
aI1
aI0
aI1
aI0
aI1
aI0
aI1
aI1
aI1
aI1
aI0
aI2
aI1
aI1
aI1
aI0
aI0
aI3
aI1
aI0
aI1
aI1
aI0
aI3
aI1
aI1
aI0
aI1
aI0
aI1
aI0
aI0
aI1
aI2
aI0
aI0
aI2
aI2
aI0
aI1
aI3
aI2
aI1
aI1
aI0
aI2
aI2
aI0
aI1
aI0
aI1
aI1
aI1
aI3
aI1
aI1
aI1
aI0
aI1
aI3
aI0
aI2
aI3
aI1
aI1
aI0
aI1
aI2
aI3
aI0
aI1
aI1
aI1
aI1
aI1
aI0
aI0
aI0
aI1
aI1
aI1
aI1
aI1
aI0
aI4
aI1
aI0
aI0
aI1
aI2
aI0
aI1
aI1
aI1
aI2
aI2
aI0
aI1
aI0
aI1
aI2
aI2
aI1
aI2
aI3
aI1
aI0
aI0
aI1
aI1
aI2
aI0
aI1
aI1
aI1
aI3
aI0
aI1
aI2
aI1
aI0
aI1
aI0
aI0
aI0
aI1
aI1
aI1
aI1
aI0
aI1
aI1
aI2
aI1
aI0
aI4
aI2
aI0
aI2
aI0
aI0
aI0
aI1
aI0
aI1
aI3
aI1
aI1
aI0
aI1
aI0
aI2
aI1
aI2
aI0
aI1
aI2
aI1
aI2
aI2
aI0
aI0
aI0
aI1
aI2
aI2
aI1
aI1
aI1
aI1
aI2
aI1
aI1
aI0
aI0
aI1
aI1
aI0
aI2
aI1
aI3
aI1
aI2
aI1
aI0
aI2
aI0
aI1
aI4
aI1
aI1
aI0
aI3
aI2
aI0
aI1
aI1
aI2
aI0
aI2
aI2
aI1
aI0
aI0
aI2
aI0
aI1
aI0
aI1
aI2
aI1
aI3
aI0
aI2
aI0
aI0
aI0
aI2
aI2
aI1
aI0
aI1
aI2
aI2
aI1
aI1
aI0
aI1
aI0
aI1
aI1
aI0
aI1
aI0
aI1
aI1
aI1
aI0
aI0
aI3
aI1
aI3
aI0
aI2
aI1
aI0
aI4
aI0
aI1
aI0
aI2
aI0
aI3
aI3
asS'words'
p16
(lp17
I11
aI17
aI13
aI14
aI27
aI26
aI13
aI22
aI16
aI24
aI23
aI22
aI22
aI24
aI19
aI12
aI27
aI18
aI18
aI29
aI22
aI20
aI14
aI27
aI13
aI7
aI20
aI22
aI18
aI14
aI19
aI10
aI18
aI21
aI6
aI17
aI13
aI22
aI19
aI21
aI24
aI26
aI18
aI11
aI17
aI18
aI16
aI32
aI20
aI14
aI31
aI18
aI23
aI22
aI21
aI27
aI21
aI22
aI20
aI24
aI9
aI23
aI7
aI17
aI14
aI11
aI4
aI17
aI7
aI5
aI22
aI19
aI23
aI16
aI23
aI14
aI16
aI22
aI17
aI14
aI16
aI15
aI24
aI19
aI23
aI15
aI24
aI16
aI18
aI18
aI22
aI22
aI13
aI5
aI21
aI25
aI8
aI26
aI9
aI10
aI26
aI17
aI21
aI13
aI34
aI15
aI9
aI22
aI21
aI23
aI30
aI23
aI28
aI24
aI30
aI24
aI13
aI5
aI16
aI22
aI11
aI25
aI23
aI27
aI19
aI20
aI9
aI15
aI11
aI6
aI22
aI6
aI18
aI14
aI11
aI11
aI21
aI12
aI17
aI9
aI15
aI24
aI11
aI20
aI21
aI22
aI10
aI29
aI6
aI18
aI26
aI23
aI26
aI19
aI21
aI9
aI32
aI22
aI11
aI14
aI11
aI24
aI21
aI18
aI14
aI19
aI20
aI22
aI14
aI10
aI25
aI8
aI7
aI23
aI14
aI30
aI10
aI17
aI15
aI18
aI15
aI22
aI18
aI14
aI22
aI14
aI20
aI10
aI17
aI15
aI27
aI10
aI14
aI13
aI24
aI22
aI25
aI18
aI24
aI10
aI17
aI28
aI12
aI9
aI23
aI11
aI14
aI7
aI22
aI10
aI24
aI19
aI24
aI10
aI16
aI14
aI24
aI21
aI10
aI25
aI20
aI13
aI20
aI22
aI25
aI19
aI21
aI19
aI26
aI16
aI21
aI6
aI25
aI19
aI21
aI24
aI24
aI21
aI21
aI8
aI15
aI20
aI29
aI16
aI22
aI13
aI7
aI8
aI21
aI33
aI15
aI34
aI23
aI17
aI24
aI15
aI25
aI14
aI20
aI20
aI23
aI20
aI21
aI15
aI23
aI11
aI19
aI23
aI22
aI23
aI20
aI24
aI13
aI18
aI11
aI25
aI17
aI19
aI21
aI15
aI7
aI21
aI26
aI9
aI10
aI20
aI20
aI16
aI10
aI25
aI21
aI25
aI12
aI17
aI12
aI26
aI22
aI17
aI16
aI17
aI19
aI14
aI26
aI26
aI18
aI15
aI21
aI22
aI19
aI19
aI26
aI15
aI23
aI24
aI20
aI11
aI13
aI6
aI5
aI24
aI19
aI22
aI15
aI11
aI20
aI21
aI17
aI16
aI12
aI8
aI21
aI9
aI19
aI17
aI20
aI25
aI26
aI15
aI23
aI25
aI21
aI18
aI21
aI25
aI32
aI11
aI22
aI9
aI22
aI13
aI14
aI23
aI24
aI4
aI17
aI24
aI21
aI23
aI24
aI26
aI23
aI16
aI15
aI22
aI23
aI25
aI9
aI8
aI18
aI21
aI14
aI19
aI22
aI21
aI23
aI15
aI25
aI21
aI21
aI13
aI7
aI23
aI29
aI14
aI23
aI20
aI15
aI26
aI16
aI29
aI14
aI22
aI14
aI28
aI14
aI13
aI23
aI22
aI25
aI21
aI17
aI24
aI20
aI22
aI21
aI18
aI17
aI11
aI25
aI21
aI26
aI12
aI19
aI25
aI18
aI16
aI15
aI20
aI21
aI16
aI20
aI17
aI19
aI24
aI17
aI24
aI25
aI25
aI23
aI11
aI14
aI20
aI20
aI21
aI17
aI20
aI22
aI24
aI26
aI13
aI3
aI22
aI7
aI25
aI26
aI16
aI8
aI22
aI10
aI16
aI18
aI25
aI19
aI17
aI19
aI22
aI24
aI15
aI9
aI25
aI13
aI14
aI29
aI17
aI21
aI18
aI20
aI15
aI20
aI12
aI15
aI12
aI13
aI21
aI17
aI11
aI23
aI16
aI25
aI14
aI16
aI19
aI7
aI25
aI21
aI18
aI19
aI7
aI9
aI17
aI20
aI26
aI14
aI14
aI26
aI25
aI27
aI20
aI19
aI30
aI5
aI15
aI23
aI20
aI7
aI23
aI24
aI8
aI15
aI20
aI20
aI16
aI20
aI10
aI16
aI11
aI10
aI13
aI17
aI8
aI24
aI23
aI9
aI21
aI21
aI22
aI18
aI11
aI19
aI21
aI15
aI8
aI22
aI18
aI28
aI32
aI9
aI14
aI25
aI22
aI18
aI21
aI25
aI20
aI15
aI23
aI22
aI19
aI20
aI22
aI18
aI20
aI18
aI18
aI25
aI22
aI18
aI10
aI17
aI24
aI2
aI19
aI24
aI21
aI12
aI22
aI11
aI29
aI11
aI7
aI26
aI13
aI20
aI23
aI13
aI20
aI19
aI24
aI15
aI7
aI15
aI13
aI16
aI12
aI10
aI24
aI21
aI14
aI25
aI17
aI11
aI26
aI34
aI15
aI11
aI24
aI15
aI18
aI4
aI12
aI12
aI25
aI18
aI16
aI25
aI6
aI16
aI27
aI14
aI14
aI19
aI19
aI20
aI24
aI4
aI25
aI9
aI13
aI8
aI17
aI23
aI22
aI17
aI16
aI16
aI25
aI16
aI21
aI9
aI22
aI24
aI22
aI23
aI11
aI17
aI20
aI23
aI10
aI28
aI21
aI20
aI18
aI12
aI21
aI5
aI12
aI16
aI20
aI21
aI21
aI21
aI15
aI22
aI16
aI17
aI18
aI22
aI23
aI19
aI24
aI15
aI15
aI25
aI26
aI19
aI23
aI23
aI20
aI15
aI23
aI23
aI24
aI26
aI21
aI26
aI9
aI21
aI24
aI20
aI23
aI25
aI7
aI10
aI21
aI25
aI23
aI25
aI24
aI21
aI16
aI27
aI19
aI25
aI7
aI26
aI19
aI7
aI5
aI6
aI22
aI21
aI19
aI12
aI8
aI16
aI18
aI16
aI20
aI5
aI22
aI17
aI15
aI10
aI13
aI12
aI16
aI9
aI28
aI19
aI23
aI10
aI22
aI20
aI24
aI16
aI15
aI15
aI12
aI14
aI22
aI26
aI17
aI11
aI19
aI26
aI27
aI9
aI14
aI14
aI19
aI18
aI24
aI13
aI22
aI14
aI21
aI20
aI25
aI21
aI27
aI8
aI12
aI11
aI19
aI21
aI20
aI18
aI25
aI14
aI13
aI19
aI20
aI20
aI20
aI23
aI17
aI15
aI11
aI19
aI7
aI26
aI16
aI20
aI11
aI20
aI12
aI22
aI10
aI16
aI8
aI28
aI25
aI24
aI14
aI16
aI18
aI20
aI19
aI18
aI26
aI26
aI14
aI23
aI28
aI5
aI12
aI13
aI24
aI17
aI20
aI26
aI9
aI20
aI28
aI25
aI13
aI27
aI23
aI11
aI19
aI21
aI23
aI9
aI14
aI6
aI21
aI21
aI21
aI12
aI21
aI23
aI15
aI28
aI6
aI12
aI17
aI24
aI11
aI22
aI24
aI21
aI13
aI24
aI23
aI22
aI16
aI14
aI4
aI7
aI21
aI23
aI14
aI17
aI16
aI8
aI27
aI19
aI17
aI10
aI18
aI9
aI12
aI14
aI22
aI20
aI17
aI8
aI11
aI14
aI15
aI21
aI20
aI11
aI6
aI22
aI13
aI27
aI29
aI24
aI21
aI22
aI10
aI21
aI16
aI10
aI30
aI8
aI24
aI17
aI20
aI18
aI8
aI11
aI23
aI20
aI11
aI22
aI16
aI38
aI19
aI17
aI20
aI16
aI23
aI9
aI23
aI9
aI16
aI20
aI14
aI25
aI18
aI10
aI17
aI15
aI17
aI22
aI19
aI13
aI18
aI7
aI24
aI12
aI20
aI10
aI20
aI10
aI21
aI13
aI26
aI19
aI20
aI14
aI21
aI11
aI19
aI15
aI14
aI17
aI18
aI13
aI23
aI12
aI33
aI25
aI20
aI21
aI22
aI20
aI24
aI17
aI24
aI14
aI27
aI18
aI15
aI21
aI23
aI19
aI19
aI14
aI23
aI21
aI13
aI6
aI22
aI13
aI12
aI27
aI17
aI8
aI15
aI34
aI24
aI21
aI20
aI26
aI26
aI10
aI16
aI12
aI15
aI21
aI23
aI28
aI23
aI8
aI20
aI5
aI25
aI24
aI28
aI19
aI19
aI16
aI23
aI12
aI12
aI22
aI18
aI12
aI7
aI25
aI18
aI12
aI17
aI25
aI20
aI23
aI25
aI17
aI13
aI25
aI13
aI19
aI19
aI14
aI5
aI19
aI27
aI12
aI21
aI23
aI27
aI22
aI26
aI22
aI16
aI11
aI18
aI9
aI15
aI15
aI20
aI15
aI24
aI29
aI25
aI15
aI13
aI19
aI11
aI22
aI11
aI14
aI24
aI22
aI26
aI13
aI14
aI17
aI8
aI20
aI23
aI20
aI16
aI24
aI22
aI14
aI14
aI6
aI23
aI20
aI11
aI8
aI9
aI20
aI18
aI21
aI24
aI12
aI35
aI13
aI5
aI24
aI17
aI7
aI26
aI25
aI23
aI17
aI25
aI16
aI10
aI10
aI24
aI5
aI12
aI15
aI26
aI12
aI8
aI17
aI11
aI21
aI20
aI23
aI25
aI27
aI16
aI21
aI8
aI22
aI15
aI22
aI16
aI12
aI17
aI24
aI19
aI24
as.