(dp1
S'negative_words_hashtags'
p2
(lp3
I0
aI0
aI0
aI0
aI0
aI0
aI0
aI0
aI0
aI0
aI0
aI0
asS'positive_words_hashtags'
p4
(lp5
I0
aI0
aI0
aI0
aI0
aI0
aI0
aI0
aI0
aI0
aI0
aI0
asS'special_punctuation'
p6
(lp7
I2
aI2
aI0
aI4
aI0
aI2
aI2
aI0
aI6
aI0
aI6
aI0
asS'uppercase_words'
p8
(lp9
I0
aI0
aI0
aI4
aI0
aI0
aI0
aI0
aI0
aI0
aI0
aI0
asS'negative_words'
p10
(lp11
I1
aI2
aI1
aI1
aI2
aI0
aI1
aI0
aI1
aI1
aI1
aI0
asS'positive_words'
p12
(lp13
I1
aI0
aI1
aI2
aI1
aI2
aI0
aI2
aI0
aI1
aI0
aI0
asS'adjectives'
p14
(lp15
I2
aI3
aI0
aI0
aI1
aI1
aI1
aI1
aI1
aI0
aI1
aI0
asS'words'
p16
(lp17
I27
aI23
aI20
aI15
aI18
aI19
aI22
aI12
aI23
aI5
aI18
aI9
as.