(dp1
S'negative_words_hashtags'
p2
(lp3
I0
aI0
aI0
aI0
aI0
aI0
aI0
aI0
aI0
aI0
aI0
aI0
aI0
aI0
aI0
aI0
aI0
aI0
aI0
aI0
aI0
aI0
aI0
aI0
aI0
aI0
asS'positive_words_hashtags'
p4
(lp5
I0
aI0
aI0
aI0
aI0
aI0
aI0
aI0
aI0
aI0
aI0
aI0
aI0
aI0
aI0
aI0
aI0
aI0
aI0
aI0
aI0
aI0
aI0
aI0
aI0
aI0
asS'special_punctuation'
p6
(lp7
I6
aI2
aI0
aI8
aI0
aI12
aI0
aI0
aI8
aI0
aI2
aI0
aI4
aI0
aI0
aI0
aI0
aI8
aI8
aI0
aI0
aI2
aI0
aI2
aI0
aI0
asS'uppercase_words'
p8
(lp9
I2
aI0
aI1
aI2
aI0
aI2
aI0
aI0
aI0
aI0
aI0
aI0
aI0
aI0
aI0
aI0
aI1
aI1
aI1
aI0
aI0
aI0
aI0
aI0
aI1
aI0
asS'negative_words'
p10
(lp11
I0
aI0
aI0
aI0
aI1
aI1
aI0
aI0
aI0
aI0
aI0
aI0
aI0
aI0
aI0
aI0
aI0
aI1
aI1
aI0
aI0
aI0
aI0
aI0
aI1
aI0
asS'positive_words'
p12
(lp13
I0
aI1
aI0
aI3
aI3
aI2
aI1
aI0
aI1
aI1
aI1
aI0
aI1
aI2
aI0
aI2
aI0
aI2
aI2
aI3
aI4
aI1
aI2
aI2
aI0
aI1
asS'adjectives'
p14
(lp15
I2
aI0
aI2
aI2
aI0
aI2
aI1
aI0
aI1
aI1
aI0
aI0
aI1
aI2
aI0
aI1
aI1
aI4
aI4
aI3
aI2
aI1
aI3
aI0
aI1
aI1
asS'words'
p16
(lp17
I30
aI34
aI12
aI29
aI20
aI25
aI24
aI12
aI24
aI17
aI14
aI20
aI20
aI19
aI19
aI19
aI22
aI22
aI22
aI21
aI21
aI12
aI23
aI18
aI11
aI7
as.