(dp1
S'negative_words_hashtags'
p2
(lp3
I0
aI0
aI0
aI0
aI0
aI0
aI0
aI0
aI0
aI0
aI0
aI0
aI0
aI0
aI0
aI0
aI0
aI0
aI0
aI0
aI0
aI0
aI0
aI0
aI0
aI0
aI0
aI0
aI0
aI0
aI0
aI0
aI0
aI0
aI0
aI0
aI0
aI0
aI0
aI0
aI0
aI0
aI0
aI0
aI0
aI0
aI0
aI0
aI0
aI0
aI0
aI0
aI0
aI0
aI0
aI0
aI0
aI0
aI0
aI0
aI0
aI0
aI0
aI0
aI0
aI0
aI0
aI0
aI0
aI0
aI0
aI0
aI0
aI0
aI0
aI0
aI0
aI0
aI0
aI0
aI0
aI0
aI0
aI0
aI0
aI0
aI0
aI0
aI0
aI0
aI0
aI0
aI0
aI0
aI0
aI0
aI0
aI0
aI0
aI0
aI0
aI0
aI0
aI0
aI0
aI0
aI0
aI0
aI0
aI0
aI0
aI0
aI0
aI0
aI0
aI0
aI0
aI0
aI0
aI0
aI0
aI0
aI0
aI0
aI0
aI0
aI0
aI0
aI0
aI0
aI0
aI0
aI0
aI0
aI0
aI0
aI0
aI0
aI0
aI0
aI0
aI0
aI0
aI0
aI0
aI0
aI0
aI0
aI0
aI0
aI0
aI0
aI0
aI0
aI0
aI0
aI0
aI0
aI0
aI0
aI0
aI0
aI0
aI0
aI0
aI0
aI0
aI0
aI0
aI0
aI0
aI0
aI0
aI0
aI0
aI0
aI0
aI0
aI0
aI0
aI0
aI0
aI0
aI0
aI0
aI0
aI0
aI0
aI0
aI0
aI0
aI0
aI0
aI0
aI0
aI0
aI0
aI0
aI0
aI0
aI0
aI0
aI0
aI0
aI0
aI0
aI0
aI0
aI0
aI0
aI0
aI0
aI0
aI0
aI0
aI0
aI0
aI0
aI0
aI0
aI0
asS'positive_words_hashtags'
p4
(lp5
I0
aI0
aI0
aI0
aI0
aI0
aI0
aI0
aI0
aI0
aI0
aI0
aI0
aI0
aI0
aI0
aI0
aI0
aI0
aI0
aI0
aI0
aI0
aI0
aI0
aI0
aI0
aI0
aI0
aI0
aI0
aI0
aI0
aI0
aI0
aI0
aI0
aI0
aI0
aI0
aI0
aI0
aI0
aI0
aI0
aI0
aI0
aI0
aI0
aI0
aI0
aI0
aI0
aI0
aI0
aI0
aI0
aI0
aI0
aI0
aI0
aI0
aI0
aI0
aI0
aI0
aI0
aI0
aI0
aI0
aI0
aI0
aI0
aI0
aI0
aI0
aI0
aI0
aI0
aI0
aI0
aI0
aI0
aI0
aI0
aI0
aI0
aI0
aI0
aI0
aI0
aI0
aI0
aI0
aI0
aI0
aI0
aI0
aI0
aI0
aI0
aI0
aI0
aI0
aI0
aI0
aI0
aI0
aI0
aI0
aI0
aI0
aI0
aI0
aI0
aI0
aI0
aI0
aI0
aI0
aI0
aI0
aI0
aI0
aI0
aI0
aI0
aI0
aI0
aI0
aI0
aI0
aI0
aI0
aI0
aI0
aI0
aI0
aI0
aI0
aI0
aI0
aI0
aI0
aI0
aI0
aI0
aI0
aI0
aI0
aI0
aI0
aI0
aI0
aI0
aI0
aI0
aI0
aI0
aI0
aI0
aI0
aI0
aI0
aI0
aI0
aI0
aI0
aI0
aI0
aI0
aI0
aI0
aI0
aI0
aI0
aI0
aI0
aI0
aI0
aI0
aI0
aI0
aI0
aI0
aI0
aI0
aI0
aI0
aI0
aI0
aI0
aI0
aI0
aI0
aI0
aI0
aI0
aI0
aI1
aI0
aI0
aI0
aI0
aI0
aI0
aI0
aI0
aI0
aI0
aI0
aI0
aI0
aI0
aI0
aI0
aI0
aI0
aI0
aI0
aI0
asS'special_punctuation'
p6
(lp7
I6
aI12
aI2
aI0
aI0
aI6
aI0
aI2
aI2
aI0
aI2
aI0
aI0
aI2
aI6
aI4
aI0
aI0
aI2
aI0
aI0
aI18
aI14
aI28
aI0
aI0
aI0
aI0
aI0
aI6
aI0
aI0
aI0
aI0
aI0
aI4
aI0
aI0
aI0
aI0
aI2
aI0
aI0
aI0
aI0
aI8
aI0
aI0
aI4
aI0
aI0
aI2
aI0
aI0
aI8
aI0
aI0
aI0
aI0
aI0
aI0
aI0
aI0
aI0
aI0
aI0
aI2
aI2
aI0
aI0
aI2
aI0
aI2
aI0
aI0
aI0
aI0
aI0
aI8
aI0
aI2
aI0
aI4
aI0
aI4
aI0
aI0
aI0
aI4
aI0
aI4
aI0
aI0
aI0
aI6
aI0
aI0
aI0
aI10
aI0
aI0
aI8
aI0
aI0
aI0
aI0
aI0
aI0
aI0
aI0
aI2
aI4
aI0
aI0
aI0
aI6
aI0
aI0
aI2
aI0
aI0
aI0
aI0
aI0
aI0
aI0
aI0
aI0
aI10
aI0
aI0
aI0
aI0
aI4
aI0
aI0
aI0
aI8
aI0
aI0
aI0
aI0
aI2
aI0
aI0
aI0
aI0
aI0
aI2
aI0
aI0
aI0
aI0
aI0
aI6
aI0
aI0
aI2
aI4
aI4
aI0
aI0
aI0
aI0
aI0
aI0
aI0
aI2
aI0
aI0
aI2
aI14
aI0
aI0
aI2
aI0
aI2
aI0
aI0
aI0
aI0
aI0
aI4
aI0
aI0
aI0
aI2
aI10
aI4
aI0
aI0
aI0
aI0
aI4
aI0
aI0
aI0
aI2
aI0
aI0
aI0
aI0
aI20
aI2
aI0
aI8
aI0
aI4
aI0
aI2
aI2
aI0
aI6
aI4
aI4
aI4
aI6
aI0
aI0
aI2
aI0
asS'uppercase_words'
p8
(lp9
I2
aI11
aI0
aI0
aI0
aI0
aI0
aI0
aI0
aI0
aI1
aI0
aI0
aI6
aI3
aI0
aI0
aI0
aI1
aI0
aI0
aI4
aI4
aI0
aI0
aI0
aI0
aI0
aI0
aI5
aI1
aI0
aI0
aI0
aI0
aI3
aI0
aI0
aI3
aI0
aI8
aI0
aI0
aI0
aI0
aI0
aI0
aI1
aI1
aI0
aI2
aI0
aI0
aI0
aI2
aI0
aI0
aI0
aI1
aI0
aI0
aI0
aI0
aI0
aI2
aI0
aI0
aI0
aI0
aI0
aI1
aI0
aI0
aI0
aI1
aI0
aI0
aI0
aI1
aI0
aI0
aI0
aI0
aI0
aI0
aI0
aI0
aI1
aI0
aI2
aI0
aI0
aI0
aI0
aI2
aI0
aI0
aI0
aI6
aI2
aI0
aI2
aI10
aI0
aI0
aI0
aI0
aI0
aI0
aI0
aI0
aI0
aI0
aI0
aI0
aI1
aI0
aI0
aI0
aI1
aI0
aI0
aI3
aI0
aI0
aI0
aI0
aI0
aI0
aI0
aI0
aI0
aI0
aI3
aI0
aI0
aI0
aI1
aI0
aI0
aI0
aI0
aI0
aI1
aI0
aI0
aI0
aI0
aI0
aI0
aI1
aI0
aI1
aI0
aI0
aI0
aI0
aI0
aI1
aI2
aI0
aI4
aI0
aI0
aI0
aI1
aI0
aI0
aI1
aI0
aI0
aI0
aI0
aI0
aI0
aI0
aI0
aI0
aI0
aI0
aI0
aI0
aI0
aI0
aI0
aI0
aI0
aI0
aI1
aI1
aI0
aI0
aI0
aI0
aI1
aI0
aI1
aI0
aI0
aI0
aI0
aI0
aI0
aI1
aI0
aI0
aI0
aI1
aI0
aI1
aI0
aI0
aI0
aI0
aI0
aI1
aI0
aI0
aI0
aI0
aI0
asS'negative_words'
p10
(lp11
I1
aI1
aI1
aI2
aI0
aI2
aI1
aI2
aI2
aI1
aI2
aI2
aI0
aI2
aI1
aI1
aI0
aI0
aI0
aI2
aI2
aI0
aI0
aI1
aI1
aI1
aI2
aI2
aI3
aI2
aI1
aI1
aI0
aI0
aI1
aI0
aI2
aI1
aI3
aI1
aI0
aI0
aI3
aI0
aI2
aI0
aI1
aI0
aI1
aI4
aI1
aI0
aI0
aI1
aI1
aI1
aI0
aI2
aI1
aI0
aI1
aI1
aI0
aI0
aI0
aI1
aI2
aI0
aI4
aI0
aI1
aI0
aI0
aI0
aI0
aI1
aI3
aI2
aI0
aI0
aI0
aI1
aI0
aI1
aI0
aI1
aI1
aI1
aI3
aI1
aI0
aI0
aI2
aI0
aI1
aI0
aI0
aI1
aI0
aI2
aI1
aI1
aI0
aI0
aI1
aI1
aI0
aI1
aI1
aI2
aI2
aI2
aI0
aI2
aI2
aI0
aI3
aI1
aI2
aI2
aI3
aI2
aI0
aI1
aI1
aI1
aI3
aI1
aI1
aI0
aI0
aI0
aI1
aI1
aI0
aI0
aI1
aI1
aI0
aI0
aI0
aI0
aI2
aI0
aI1
aI0
aI0
aI0
aI0
aI1
aI0
aI0
aI1
aI1
aI0
aI0
aI0
aI1
aI3
aI3
aI1
aI1
aI2
aI0
aI0
aI0
aI0
aI1
aI1
aI1
aI0
aI2
aI0
aI1
aI0
aI0
aI0
aI0
aI1
aI2
aI0
aI0
aI2
aI0
aI0
aI2
aI0
aI0
aI2
aI1
aI0
aI0
aI2
aI0
aI0
aI0
aI1
aI0
aI0
aI1
aI1
aI2
aI2
aI0
aI0
aI1
aI0
aI0
aI0
aI1
aI0
aI1
aI1
aI0
aI0
aI1
aI0
aI2
aI2
aI1
aI1
asS'positive_words'
p12
(lp13
I0
aI1
aI2
aI1
aI0
aI0
aI0
aI0
aI0
aI0
aI0
aI0
aI0
aI0
aI0
aI0
aI1
aI1
aI0
aI0
aI0
aI3
aI3
aI0
aI0
aI0
aI3
aI3
aI2
aI0
aI1
aI0
aI0
aI1
aI0
aI1
aI1
aI2
aI0
aI0
aI0
aI1
aI1
aI0
aI2
aI0
aI0
aI0
aI0
aI1
aI1
aI0
aI0
aI0
aI1
aI0
aI0
aI0
aI0
aI1
aI0
aI0
aI0
aI0
aI0
aI0
aI1
aI0
aI0
aI1
aI0
aI1
aI0
aI0
aI0
aI0
aI0
aI0
aI0
aI1
aI0
aI0
aI0
aI1
aI0
aI0
aI0
aI0
aI0
aI0
aI1
aI0
aI0
aI0
aI1
aI0
aI0
aI0
aI0
aI0
aI0
aI0
aI1
aI0
aI0
aI0
aI0
aI0
aI1
aI0
aI0
aI1
aI0
aI1
aI0
aI0
aI0
aI1
aI1
aI1
aI0
aI0
aI1
aI1
aI1
aI0
aI0
aI0
aI0
aI1
aI1
aI0
aI0
aI1
aI1
aI1
aI0
aI0
aI1
aI1
aI1
aI1
aI0
aI1
aI2
aI1
aI0
aI1
aI0
aI1
aI0
aI1
aI0
aI0
aI0
aI1
aI0
aI0
aI0
aI2
aI0
aI1
aI1
aI0
aI1
aI0
aI0
aI1
aI1
aI1
aI2
aI2
aI0
aI1
aI2
aI2
aI0
aI1
aI0
aI0
aI0
aI3
aI0
aI1
aI2
aI1
aI3
aI0
aI1
aI1
aI1
aI3
aI1
aI1
aI1
aI0
aI1
aI2
aI0
aI0
aI2
aI0
aI0
aI0
aI0
aI1
aI0
aI3
aI0
aI2
aI0
aI1
aI0
aI1
aI1
aI3
aI2
aI2
aI0
aI0
aI2
asS'adjectives'
p14
(lp15
I0
aI1
aI4
aI3
aI1
aI0
aI3
aI2
aI1
aI1
aI0
aI0
aI0
aI1
aI1
aI0
aI1
aI0
aI0
aI0
aI1
aI2
aI2
aI1
aI0
aI1
aI0
aI0
aI1
aI1
aI2
aI0
aI1
aI1
aI2
aI2
aI1
aI0
aI0
aI1
aI2
aI0
aI0
aI0
aI4
aI0
aI1
aI0
aI1
aI0
aI0
aI2
aI0
aI1
aI1
aI0
aI0
aI4
aI1
aI2
aI0
aI2
aI0
aI3
aI0
aI4
aI1
aI1
aI1
aI1
aI2
aI0
aI1
aI0
aI1
aI4
aI1
aI1
aI1
aI3
aI0
aI1
aI0
aI2
aI1
aI0
aI1
aI0
aI2
aI0
aI2
aI1
aI1
aI0
aI5
aI1
aI0
aI0
aI0
aI2
aI0
aI1
aI2
aI0
aI1
aI0
aI1
aI1
aI0
aI0
aI0
aI4
aI2
aI0
aI2
aI3
aI1
aI1
aI0
aI1
aI0
aI0
aI2
aI0
aI3
aI1
aI1
aI1
aI1
aI1
aI0
aI0
aI0
aI1
aI0
aI2
aI1
aI2
aI1
aI1
aI0
aI0
aI3
aI0
aI1
aI0
aI0
aI1
aI2
aI1
aI1
aI0
aI0
aI0
aI1
aI1
aI2
aI0
aI2
aI1
aI0
aI1
aI2
aI0
aI1
aI1
aI3
aI1
aI1
aI2
aI3
aI2
aI1
aI0
aI2
aI2
aI0
aI0
aI2
aI1
aI0
aI2
aI0
aI0
aI0
aI0
aI1
aI0
aI2
aI0
aI0
aI1
aI0
aI0
aI1
aI0
aI2
aI1
aI0
aI0
aI3
aI5
aI2
aI1
aI0
aI1
aI0
aI2
aI0
aI0
aI0
aI3
aI1
aI1
aI0
aI0
aI0
aI2
aI0
aI1
aI3
asS'words'
p16
(lp17
I13
aI12
aI25
aI25
aI11
aI11
aI19
aI12
aI12
aI8
aI16
aI6
aI5
aI23
aI4
aI27
aI16
aI8
aI8
aI21
aI6
aI24
aI23
aI7
aI12
aI23
aI17
aI22
aI25
aI28
aI11
aI22
aI23
aI23
aI25
aI33
aI18
aI14
aI28
aI28
aI27
aI19
aI25
aI2
aI27
aI12
aI24
aI13
aI27
aI25
aI15
aI10
aI10
aI4
aI15
aI5
aI3
aI27
aI14
aI17
aI9
aI18
aI9
aI20
aI28
aI23
aI24
aI24
aI16
aI11
aI13
aI9
aI22
aI5
aI14
aI22
aI20
aI6
aI14
aI14
aI10
aI4
aI6
aI23
aI22
aI7
aI15
aI16
aI28
aI19
aI9
aI15
aI16
aI22
aI20
aI17
aI5
aI9
aI7
aI20
aI10
aI8
aI10
aI13
aI24
aI12
aI6
aI24
aI7
aI23
aI7
aI24
aI11
aI16
aI25
aI22
aI24
aI20
aI25
aI29
aI16
aI10
aI18
aI19
aI30
aI10
aI20
aI31
aI18
aI25
aI4
aI18
aI20
aI27
aI21
aI18
aI2
aI22
aI24
aI17
aI6
aI14
aI8
aI15
aI22
aI11
aI14
aI17
aI28
aI30
aI24
aI17
aI8
aI12
aI13
aI4
aI13
aI19
aI14
aI21
aI7
aI7
aI25
aI2
aI7
aI24
aI22
aI13
aI18
aI18
aI16
aI23
aI6
aI11
aI22
aI18
aI17
aI8
aI5
aI16
aI26
aI19
aI18
aI15
aI18
aI12
aI16
aI20
aI28
aI11
aI14
aI31
aI15
aI15
aI14
aI29
aI15
aI24
aI5
aI6
aI24
aI26
aI14
aI20
aI19
aI5
aI8
aI24
aI13
aI16
aI10
aI21
aI18
aI23
aI23
aI13
aI10
aI23
aI26
aI17
aI26
as.