(dp1
S'negative_words_hashtags'
p2
(lp3
I0
aI0
aI0
aI0
aI0
aI0
aI0
aI0
aI0
aI0
aI0
aI0
aI0
aI0
aI0
aI0
aI0
aI0
aI0
aI0
aI0
aI0
aI0
aI0
aI0
aI0
aI0
aI0
aI0
aI0
aI0
aI0
aI0
aI0
aI0
aI0
aI0
aI0
aI0
aI0
aI0
aI0
aI0
aI0
aI0
aI0
aI0
aI0
aI0
aI0
aI0
aI0
aI0
aI0
aI0
aI0
aI0
aI0
aI0
aI0
aI0
aI0
aI0
aI0
aI0
aI0
aI0
aI0
aI0
aI0
aI0
aI0
aI0
aI0
aI0
aI0
aI0
aI0
aI0
aI0
aI0
aI0
aI0
aI0
aI0
aI0
aI0
aI0
aI0
aI0
aI0
aI0
aI0
aI0
aI0
aI0
aI0
aI0
aI0
aI0
aI0
aI0
aI0
aI0
aI0
aI0
aI0
aI0
aI0
aI0
aI0
aI0
aI0
aI0
aI0
aI0
aI0
aI0
aI0
aI0
aI0
aI0
aI0
aI0
aI0
aI0
aI0
aI0
aI0
aI0
aI0
aI0
aI0
aI0
aI0
aI0
aI0
aI0
aI0
aI0
aI0
aI0
aI0
aI0
aI0
aI0
aI0
aI0
aI0
aI0
aI0
aI0
aI0
aI0
aI0
aI0
aI0
aI0
aI0
aI0
aI0
aI0
aI0
aI0
aI0
aI0
aI0
aI0
aI0
aI0
aI0
aI0
aI0
aI0
aI0
aI0
aI0
aI0
aI0
aI0
aI0
aI0
aI0
aI0
aI0
aI0
aI0
aI0
aI0
aI0
aI0
aI0
aI0
aI0
aI0
aI0
aI0
aI0
aI0
aI0
aI0
aI0
aI0
aI0
aI0
aI0
aI0
aI0
aI0
aI0
aI0
aI0
aI0
aI0
aI0
aI0
aI0
aI0
aI0
aI0
aI0
aI0
aI0
aI0
aI0
aI0
aI0
aI0
aI0
aI0
aI0
aI0
aI0
aI0
aI0
aI0
aI0
aI0
aI0
aI0
aI0
aI0
aI0
aI0
aI0
aI0
aI0
aI0
aI0
aI0
aI0
aI0
aI0
aI0
aI0
aI0
aI0
aI0
aI0
aI0
aI0
aI0
aI0
aI0
aI0
aI0
aI0
aI0
aI0
aI0
aI0
aI0
aI0
aI0
aI0
aI0
aI0
aI0
aI0
aI0
aI0
aI0
aI0
aI0
aI0
aI0
aI0
aI0
aI0
aI0
aI0
aI0
aI0
aI0
aI0
aI0
aI0
aI0
aI0
aI0
aI0
aI0
aI0
aI0
aI0
aI0
aI0
aI0
aI0
aI0
aI0
aI0
aI0
aI0
aI0
aI0
aI0
aI0
aI0
aI0
aI0
aI0
aI0
aI0
aI0
aI0
aI0
aI0
aI0
aI0
aI0
aI0
aI0
aI0
aI0
aI0
aI0
aI0
aI0
aI0
aI0
aI0
aI0
aI0
aI0
aI0
aI0
aI0
aI0
aI0
aI0
aI0
aI0
aI0
aI0
aI0
aI0
aI0
aI0
aI0
aI0
aI0
aI0
aI0
aI0
aI0
aI0
aI0
aI0
aI0
aI0
aI0
aI0
aI0
aI0
aI0
aI0
aI0
aI0
aI0
aI0
aI0
aI0
aI0
aI0
aI0
aI0
aI0
aI0
aI0
aI0
aI0
aI0
aI0
aI0
aI0
aI0
aI0
aI0
aI0
aI0
aI0
aI0
aI0
aI0
aI0
asS'positive_words_hashtags'
p4
(lp5
I0
aI0
aI0
aI0
aI0
aI0
aI0
aI0
aI0
aI0
aI0
aI0
aI0
aI0
aI0
aI0
aI0
aI0
aI0
aI0
aI0
aI0
aI0
aI0
aI0
aI0
aI0
aI0
aI0
aI0
aI0
aI0
aI0
aI0
aI0
aI0
aI0
aI0
aI0
aI0
aI0
aI0
aI0
aI0
aI0
aI0
aI0
aI0
aI0
aI0
aI0
aI0
aI0
aI0
aI0
aI0
aI0
aI0
aI0
aI0
aI0
aI0
aI0
aI0
aI0
aI0
aI0
aI0
aI0
aI0
aI0
aI0
aI0
aI0
aI0
aI0
aI0
aI0
aI0
aI0
aI0
aI0
aI0
aI0
aI0
aI0
aI0
aI0
aI0
aI0
aI0
aI0
aI0
aI0
aI0
aI0
aI0
aI0
aI0
aI0
aI0
aI0
aI0
aI0
aI0
aI0
aI0
aI0
aI0
aI0
aI0
aI0
aI0
aI0
aI0
aI0
aI0
aI0
aI0
aI0
aI0
aI0
aI0
aI0
aI0
aI0
aI0
aI0
aI0
aI0
aI0
aI0
aI0
aI0
aI0
aI0
aI0
aI0
aI0
aI0
aI0
aI0
aI0
aI0
aI0
aI0
aI0
aI0
aI0
aI0
aI0
aI0
aI0
aI0
aI0
aI0
aI0
aI0
aI0
aI0
aI0
aI0
aI0
aI0
aI0
aI0
aI0
aI0
aI0
aI0
aI0
aI0
aI0
aI0
aI0
aI0
aI0
aI0
aI0
aI0
aI0
aI0
aI0
aI0
aI0
aI0
aI0
aI0
aI0
aI0
aI0
aI0
aI0
aI0
aI0
aI0
aI0
aI0
aI0
aI0
aI0
aI0
aI0
aI0
aI0
aI0
aI0
aI0
aI0
aI0
aI0
aI0
aI0
aI0
aI0
aI0
aI0
aI0
aI0
aI0
aI0
aI0
aI0
aI0
aI0
aI0
aI0
aI0
aI0
aI0
aI0
aI0
aI0
aI0
aI0
aI0
aI0
aI0
aI0
aI0
aI0
aI0
aI0
aI0
aI0
aI0
aI0
aI0
aI0
aI0
aI0
aI0
aI0
aI0
aI0
aI0
aI0
aI0
aI0
aI0
aI0
aI0
aI0
aI0
aI0
aI0
aI0
aI0
aI0
aI0
aI0
aI0
aI0
aI0
aI0
aI0
aI0
aI0
aI0
aI0
aI0
aI0
aI0
aI0
aI0
aI0
aI0
aI0
aI0
aI0
aI0
aI0
aI0
aI0
aI0
aI0
aI0
aI0
aI0
aI0
aI0
aI0
aI0
aI0
aI0
aI0
aI0
aI0
aI0
aI0
aI0
aI0
aI0
aI0
aI0
aI0
aI0
aI0
aI0
aI0
aI0
aI0
aI0
aI0
aI0
aI0
aI0
aI0
aI0
aI0
aI0
aI0
aI0
aI0
aI0
aI0
aI0
aI0
aI0
aI0
aI0
aI0
aI0
aI0
aI0
aI0
aI0
aI0
aI0
aI0
aI0
aI0
aI0
aI0
aI0
aI0
aI0
aI0
aI0
aI0
aI0
aI0
aI0
aI0
aI0
aI0
aI0
aI0
aI0
aI0
aI0
aI0
aI0
aI0
aI0
aI0
aI0
aI0
aI0
aI0
aI0
aI0
aI0
aI0
aI0
aI0
aI0
aI0
aI0
aI0
aI0
aI0
aI0
aI0
aI0
aI0
aI0
aI0
aI0
aI0
aI0
aI0
aI0
aI0
aI0
aI0
asS'special_punctuation'
p6
(lp7
I0
aI0
aI0
aI0
aI0
aI0
aI2
aI2
aI0
aI0
aI0
aI2
aI0
aI0
aI0
aI4
aI0
aI0
aI0
aI0
aI0
aI0
aI2
aI0
aI4
aI0
aI0
aI0
aI0
aI2
aI2
aI0
aI0
aI0
aI0
aI0
aI0
aI2
aI0
aI0
aI0
aI0
aI4
aI0
aI2
aI0
aI2
aI0
aI0
aI2
aI2
aI0
aI0
aI6
aI6
aI0
aI0
aI2
aI4
aI4
aI0
aI0
aI0
aI4
aI0
aI2
aI0
aI0
aI0
aI0
aI0
aI0
aI0
aI0
aI2
aI6
aI0
aI0
aI0
aI0
aI0
aI0
aI0
aI0
aI0
aI0
aI0
aI0
aI2
aI0
aI0
aI0
aI0
aI0
aI4
aI0
aI0
aI6
aI0
aI2
aI0
aI2
aI0
aI2
aI8
aI2
aI0
aI2
aI0
aI0
aI0
aI2
aI0
aI2
aI0
aI0
aI0
aI0
aI4
aI0
aI2
aI2
aI6
aI0
aI0
aI0
aI2
aI0
aI0
aI0
aI4
aI2
aI0
aI0
aI0
aI0
aI0
aI0
aI0
aI0
aI0
aI0
aI6
aI0
aI2
aI0
aI4
aI0
aI0
aI2
aI4
aI0
aI0
aI0
aI0
aI0
aI0
aI2
aI8
aI0
aI0
aI0
aI0
aI0
aI0
aI0
aI4
aI2
aI0
aI0
aI4
aI0
aI0
aI0
aI0
aI0
aI0
aI2
aI0
aI0
aI0
aI0
aI0
aI0
aI2
aI2
aI0
aI12
aI0
aI4
aI0
aI0
aI0
aI0
aI2
aI4
aI0
aI2
aI0
aI0
aI0
aI0
aI0
aI0
aI0
aI0
aI0
aI4
aI0
aI0
aI0
aI2
aI0
aI2
aI0
aI0
aI0
aI0
aI0
aI2
aI2
aI2
aI0
aI0
aI2
aI0
aI0
aI0
aI2
aI0
aI0
aI0
aI0
aI0
aI0
aI0
aI2
aI2
aI0
aI0
aI0
aI0
aI0
aI0
aI0
aI0
aI2
aI0
aI0
aI0
aI0
aI0
aI0
aI0
aI0
aI0
aI2
aI0
aI0
aI0
aI0
aI0
aI4
aI0
aI0
aI0
aI0
aI0
aI0
aI4
aI0
aI0
aI2
aI2
aI0
aI0
aI0
aI4
aI0
aI0
aI0
aI8
aI0
aI6
aI0
aI0
aI0
aI4
aI4
aI0
aI0
aI0
aI0
aI0
aI0
aI0
aI0
aI4
aI0
aI0
aI0
aI0
aI0
aI8
aI2
aI0
aI0
aI0
aI0
aI0
aI0
aI0
aI2
aI0
aI2
aI0
aI0
aI0
aI0
aI2
aI0
aI0
aI2
aI0
aI0
aI2
aI0
aI0
aI0
aI0
aI0
aI6
aI0
aI0
aI0
aI4
aI0
aI0
aI0
aI8
aI0
aI0
aI0
aI0
aI8
aI0
aI2
aI2
aI0
aI0
aI0
aI0
aI0
aI4
aI0
aI0
aI4
aI0
aI0
aI12
aI0
aI0
aI0
aI0
aI0
aI0
aI0
aI2
aI0
aI0
aI0
aI2
aI0
aI0
aI0
aI2
aI2
aI0
aI0
aI0
aI0
aI0
aI0
aI2
aI0
aI4
aI2
aI0
aI4
aI0
aI0
aI0
aI0
aI0
aI0
aI0
aI0
aI0
aI0
aI0
aI2
aI0
aI0
aI0
aI0
aI2
asS'uppercase_words'
p8
(lp9
I1
aI2
aI1
aI1
aI0
aI0
aI5
aI0
aI0
aI0
aI1
aI2
aI0
aI7
aI0
aI1
aI15
aI0
aI2
aI1
aI0
aI0
aI0
aI0
aI0
aI0
aI0
aI1
aI2
aI0
aI0
aI0
aI0
aI0
aI1
aI0
aI0
aI0
aI0
aI1
aI1
aI0
aI2
aI1
aI0
aI0
aI0
aI1
aI0
aI23
aI0
aI0
aI1
aI0
aI0
aI0
aI1
aI0
aI0
aI4
aI1
aI0
aI1
aI0
aI0
aI0
aI1
aI1
aI0
aI0
aI0
aI0
aI2
aI0
aI0
aI0
aI2
aI0
aI0
aI1
aI2
aI0
aI0
aI1
aI1
aI0
aI1
aI0
aI1
aI0
aI1
aI1
aI1
aI1
aI1
aI5
aI1
aI2
aI1
aI1
aI0
aI0
aI0
aI2
aI0
aI2
aI0
aI1
aI1
aI2
aI22
aI1
aI1
aI0
aI1
aI0
aI1
aI0
aI0
aI0
aI2
aI0
aI0
aI0
aI1
aI0
aI0
aI0
aI1
aI0
aI1
aI0
aI0
aI0
aI1
aI0
aI0
aI1
aI2
aI1
aI0
aI1
aI0
aI0
aI1
aI0
aI0
aI0
aI2
aI0
aI2
aI1
aI0
aI0
aI1
aI0
aI1
aI2
aI0
aI1
aI1
aI2
aI1
aI0
aI3
aI0
aI1
aI0
aI2
aI1
aI0
aI0
aI1
aI1
aI0
aI0
aI0
aI0
aI0
aI2
aI0
aI0
aI0
aI2
aI0
aI0
aI0
aI0
aI0
aI3
aI0
aI1
aI0
aI7
aI1
aI1
aI1
aI2
aI0
aI0
aI1
aI0
aI0
aI0
aI1
aI2
aI1
aI0
aI0
aI0
aI0
aI0
aI0
aI0
aI1
aI2
aI0
aI2
aI1
aI0
aI1
aI1
aI0
aI0
aI1
aI1
aI0
aI10
aI0
aI16
aI0
aI0
aI0
aI0
aI0
aI1
aI0
aI0
aI1
aI0
aI0
aI1
aI0
aI1
aI0
aI0
aI0
aI1
aI0
aI2
aI0
aI12
aI1
aI0
aI1
aI0
aI1
aI2
aI2
aI0
aI0
aI1
aI1
aI1
aI0
aI2
aI2
aI1
aI0
aI0
aI0
aI2
aI0
aI0
aI2
aI0
aI0
aI3
aI2
aI0
aI1
aI0
aI6
aI0
aI1
aI0
aI0
aI3
aI0
aI1
aI0
aI0
aI0
aI1
aI0
aI0
aI0
aI2
aI1
aI1
aI0
aI0
aI0
aI1
aI0
aI0
aI0
aI2
aI1
aI0
aI0
aI2
aI0
aI1
aI0
aI0
aI0
aI0
aI0
aI1
aI2
aI1
aI0
aI0
aI2
aI0
aI1
aI0
aI0
aI2
aI2
aI0
aI1
aI0
aI0
aI3
aI1
aI0
aI1
aI0
aI0
aI0
aI2
aI14
aI2
aI0
aI1
aI0
aI2
aI1
aI0
aI2
aI0
aI1
aI3
aI12
aI0
aI2
aI1
aI3
aI4
aI0
aI19
aI0
aI2
aI1
aI0
aI0
aI0
aI0
aI1
aI0
aI2
aI1
aI2
aI1
aI0
aI1
aI1
aI0
aI1
aI0
aI2
aI1
aI0
aI0
aI1
aI1
aI0
aI0
aI0
aI0
aI1
aI2
aI10
aI0
aI3
aI0
aI1
aI3
aI0
aI2
aI0
aI1
aI0
aI1
asS'negative_words'
p10
(lp11
I0
aI0
aI0
aI0
aI0
aI0
aI0
aI1
aI0
aI0
aI0
aI0
aI0
aI0
aI0
aI0
aI0
aI0
aI0
aI0
aI0
aI0
aI0
aI0
aI0
aI0
aI0
aI0
aI0
aI0
aI0
aI0
aI0
aI0
aI0
aI1
aI0
aI2
aI0
aI0
aI0
aI1
aI0
aI0
aI0
aI0
aI0
aI0
aI0
aI0
aI0
aI0
aI0
aI0
aI0
aI0
aI0
aI0
aI1
aI0
aI0
aI0
aI1
aI0
aI0
aI0
aI0
aI0
aI0
aI0
aI0
aI0
aI0
aI0
aI0
aI0
aI0
aI0
aI0
aI0
aI0
aI0
aI0
aI0
aI0
aI0
aI0
aI0
aI0
aI0
aI0
aI0
aI0
aI1
aI0
aI0
aI0
aI0
aI0
aI0
aI1
aI0
aI0
aI0
aI1
aI0
aI0
aI0
aI0
aI0
aI0
aI0
aI0
aI0
aI0
aI0
aI0
aI0
aI0
aI0
aI0
aI0
aI0
aI0
aI0
aI0
aI0
aI0
aI0
aI0
aI0
aI0
aI0
aI0
aI0
aI0
aI0
aI0
aI0
aI0
aI0
aI0
aI0
aI0
aI0
aI0
aI0
aI0
aI0
aI0
aI0
aI0
aI0
aI1
aI0
aI0
aI0
aI0
aI0
aI0
aI0
aI0
aI0
aI0
aI0
aI0
aI0
aI0
aI0
aI1
aI0
aI0
aI0
aI0
aI1
aI0
aI0
aI0
aI1
aI0
aI0
aI1
aI0
aI0
aI0
aI0
aI0
aI0
aI0
aI0
aI1
aI0
aI0
aI1
aI0
aI0
aI0
aI0
aI0
aI0
aI0
aI1
aI0
aI1
aI0
aI0
aI0
aI0
aI0
aI0
aI0
aI0
aI0
aI0
aI0
aI0
aI0
aI0
aI0
aI0
aI0
aI0
aI0
aI1
aI0
aI0
aI0
aI0
aI0
aI0
aI0
aI1
aI0
aI0
aI0
aI1
aI1
aI0
aI0
aI0
aI0
aI0
aI0
aI1
aI0
aI0
aI0
aI0
aI0
aI0
aI0
aI0
aI0
aI0
aI0
aI0
aI2
aI1
aI0
aI0
aI0
aI0
aI0
aI0
aI0
aI0
aI0
aI0
aI0
aI1
aI0
aI0
aI0
aI0
aI0
aI0
aI0
aI0
aI0
aI0
aI0
aI0
aI0
aI0
aI0
aI0
aI0
aI0
aI0
aI0
aI0
aI0
aI0
aI0
aI0
aI0
aI0
aI0
aI0
aI0
aI0
aI0
aI0
aI2
aI0
aI0
aI0
aI0
aI0
aI0
aI0
aI0
aI1
aI0
aI0
aI0
aI1
aI0
aI0
aI0
aI0
aI0
aI0
aI0
aI0
aI0
aI0
aI0
aI0
aI0
aI0
aI0
aI0
aI0
aI0
aI0
aI0
aI0
aI0
aI1
aI0
aI0
aI1
aI0
aI0
aI1
aI1
aI0
aI0
aI0
aI1
aI0
aI0
aI0
aI0
aI0
aI0
aI0
aI0
aI0
aI0
aI0
aI0
aI2
aI0
aI0
aI0
aI0
aI0
aI0
aI0
aI3
aI0
aI0
aI0
aI1
aI0
aI0
aI0
aI1
aI0
aI0
aI0
aI0
aI0
aI0
aI0
aI0
aI0
aI0
aI0
aI0
aI0
aI0
aI0
aI0
aI0
aI0
aI0
aI0
aI0
aI3
aI2
aI0
aI0
aI1
asS'positive_words'
p12
(lp13
I0
aI0
aI0
aI0
aI2
aI0
aI0
aI0
aI1
aI2
aI1
aI0
aI0
aI0
aI0
aI1
aI3
aI1
aI0
aI0
aI2
aI0
aI1
aI1
aI0
aI0
aI0
aI0
aI0
aI1
aI0
aI1
aI0
aI0
aI0
aI3
aI1
aI2
aI0
aI0
aI2
aI0
aI2
aI0
aI3
aI1
aI1
aI1
aI0
aI0
aI0
aI0
aI0
aI0
aI2
aI0
aI0
aI2
aI0
aI0
aI0
aI0
aI1
aI3
aI0
aI0
aI1
aI1
aI1
aI0
aI1
aI0
aI1
aI0
aI1
aI0
aI0
aI1
aI0
aI1
aI0
aI0
aI0
aI1
aI0
aI0
aI0
aI1
aI0
aI1
aI0
aI0
aI0
aI0
aI1
aI0
aI0
aI1
aI0
aI0
aI0
aI0
aI0
aI1
aI2
aI0
aI0
aI1
aI0
aI1
aI0
aI2
aI0
aI0
aI0
aI0
aI1
aI0
aI1
aI1
aI1
aI1
aI2
aI2
aI1
aI0
aI1
aI1
aI0
aI1
aI0
aI1
aI1
aI0
aI0
aI0
aI0
aI0
aI0
aI1
aI1
aI0
aI3
aI0
aI3
aI0
aI1
aI0
aI0
aI0
aI1
aI1
aI1
aI0
aI0
aI0
aI0
aI1
aI2
aI0
aI2
aI1
aI0
aI0
aI0
aI1
aI0
aI0
aI1
aI0
aI0
aI1
aI0
aI0
aI0
aI0
aI0
aI1
aI1
aI0
aI0
aI1
aI1
aI1
aI1
aI1
aI0
aI1
aI0
aI3
aI0
aI1
aI0
aI1
aI1
aI1
aI1
aI1
aI1
aI1
aI0
aI0
aI0
aI1
aI0
aI1
aI1
aI0
aI2
aI0
aI0
aI1
aI0
aI0
aI0
aI1
aI0
aI0
aI1
aI1
aI0
aI0
aI0
aI0
aI1
aI0
aI3
aI1
aI0
aI0
aI2
aI1
aI0
aI3
aI2
aI1
aI0
aI1
aI0
aI1
aI1
aI0
aI0
aI0
aI0
aI0
aI1
aI1
aI0
aI1
aI0
aI2
aI0
aI0
aI0
aI1
aI1
aI0
aI1
aI1
aI0
aI1
aI2
aI0
aI0
aI1
aI1
aI0
aI0
aI0
aI3
aI0
aI0
aI1
aI1
aI0
aI0
aI3
aI1
aI1
aI0
aI0
aI0
aI1
aI0
aI2
aI2
aI0
aI1
aI0
aI0
aI0
aI1
aI0
aI1
aI0
aI0
aI2
aI0
aI2
aI1
aI0
aI0
aI3
aI0
aI0
aI3
aI1
aI0
aI0
aI1
aI0
aI1
aI1
aI2
aI1
aI1
aI2
aI1
aI0
aI1
aI2
aI0
aI0
aI0
aI1
aI0
aI1
aI1
aI1
aI0
aI1
aI0
aI0
aI1
aI0
aI0
aI0
aI1
aI2
aI1
aI0
aI2
aI0
aI2
aI2
aI1
aI1
aI0
aI0
aI1
aI0
aI0
aI0
aI1
aI3
aI0
aI1
aI2
aI1
aI0
aI1
aI1
aI1
aI1
aI2
aI1
aI2
aI0
aI1
aI1
aI1
aI1
aI0
aI1
aI1
aI3
aI1
aI2
aI1
aI0
aI0
aI0
aI0
aI1
aI0
aI2
aI1
aI0
aI0
aI0
aI0
aI0
aI0
aI0
aI1
aI0
aI0
aI0
aI0
aI2
aI0
aI1
aI0
aI0
aI1
asS'adjectives'
p14
(lp15
I0
aI0
aI0
aI2
aI0
aI0
aI1
aI3
aI0
aI1
aI1
aI0
aI1
aI1
aI1
aI1
aI1
aI0
aI1
aI0
aI1
aI0
aI4
aI2
aI0
aI0
aI0
aI1
aI2
aI1
aI0
aI1
aI1
aI0
aI2
aI0
aI0
aI3
aI1
aI0
aI0
aI3
aI2
aI1
aI2
aI0
aI0
aI1
aI0
aI1
aI0
aI0
aI0
aI0
aI1
aI0
aI0
aI0
aI0
aI0
aI0
aI0
aI0
aI0
aI0
aI1
aI0
aI0
aI2
aI0
aI1
aI1
aI0
aI0
aI1
aI1
aI1
aI0
aI1
aI2
aI0
aI0
aI0
aI0
aI1
aI0
aI0
aI1
aI1
aI0
aI0
aI0
aI0
aI1
aI1
aI0
aI0
aI0
aI4
aI0
aI0
aI0
aI0
aI1
aI1
aI0
aI0
aI1
aI1
aI0
aI1
aI3
aI1
aI0
aI0
aI1
aI0
aI1
aI0
aI0
aI1
aI0
aI0
aI1
aI0
aI0
aI1
aI0
aI1
aI0
aI0
aI0
aI0
aI2
aI0
aI0
aI0
aI1
aI0
aI1
aI0
aI0
aI1
aI1
aI3
aI0
aI0
aI1
aI2
aI0
aI0
aI1
aI0
aI0
aI1
aI0
aI0
aI0
aI1
aI1
aI0
aI0
aI0
aI0
aI0
aI2
aI0
aI0
aI0
aI0
aI0
aI1
aI0
aI1
aI0
aI1
aI0
aI2
aI1
aI2
aI0
aI0
aI0
aI1
aI1
aI3
aI1
aI1
aI0
aI2
aI1
aI0
aI0
aI2
aI0
aI1
aI1
aI0
aI0
aI1
aI0
aI0
aI1
aI0
aI0
aI0
aI2
aI0
aI1
aI0
aI1
aI2
aI0
aI0
aI1
aI0
aI0
aI0
aI0
aI1
aI0
aI1
aI1
aI1
aI1
aI0
aI2
aI0
aI0
aI1
aI1
aI0
aI0
aI3
aI0
aI1
aI0
aI2
aI1
aI2
aI0
aI1
aI0
aI2
aI1
aI0
aI1
aI1
aI0
aI1
aI1
aI0
aI0
aI0
aI0
aI0
aI0
aI1
aI0
aI0
aI2
aI1
aI0
aI0
aI0
aI0
aI0
aI2
aI0
aI0
aI0
aI0
aI0
aI1
aI0
aI1
aI0
aI2
aI0
aI0
aI0
aI0
aI0
aI0
aI0
aI0
aI3
aI1
aI0
aI0
aI2
aI0
aI0
aI1
aI0
aI1
aI0
aI1
aI0
aI0
aI0
aI0
aI0
aI0
aI2
aI1
aI4
aI0
aI0
aI0
aI1
aI1
aI1
aI1
aI0
aI1
aI2
aI1
aI1
aI3
aI1
aI0
aI1
aI0
aI0
aI0
aI2
aI0
aI0
aI0
aI0
aI0
aI2
aI0
aI0
aI1
aI0
aI0
aI0
aI1
aI2
aI1
aI2
aI0
aI4
aI0
aI1
aI1
aI1
aI0
aI3
aI1
aI0
aI2
aI0
aI1
aI2
aI0
aI2
aI0
aI0
aI1
aI1
aI0
aI0
aI1
aI1
aI0
aI0
aI0
aI2
aI0
aI0
aI1
aI2
aI1
aI1
aI1
aI1
aI1
aI0
aI0
aI0
aI1
aI1
aI1
aI3
aI0
aI0
aI1
aI1
aI0
aI0
aI0
aI0
aI1
aI1
aI0
aI0
aI0
aI2
aI4
aI2
aI0
aI0
aI1
asS'words'
p16
(lp17
I5
aI17
aI3
aI6
aI13
aI5
aI25
aI16
aI5
aI17
aI13
aI9
aI9
aI12
aI8
aI15
aI20
aI4
aI20
aI15
aI14
aI3
aI19
aI9
aI6
aI5
aI3
aI4
aI23
aI23
aI9
aI6
aI12
aI3
aI13
aI25
aI3
aI19
aI5
aI2
aI12
aI20
aI25
aI15
aI22
aI12
aI3
aI7
aI8
aI24
aI5
aI12
aI16
aI3
aI10
aI9
aI4
aI16
aI16
aI17
aI6
aI2
aI16
aI19
aI9
aI15
aI8
aI9
aI18
aI9
aI8
aI3
aI16
aI6
aI23
aI12
aI17
aI5
aI14
aI17
aI13
aI3
aI2
aI8
aI8
aI6
aI4
aI13
aI11
aI11
aI6
aI9
aI6
aI17
aI27
aI7
aI9
aI11
aI12
aI7
aI5
aI2
aI9
aI8
aI16
aI10
aI3
aI15
aI3
aI18
aI24
aI13
aI6
aI5
aI9
aI19
aI6
aI4
aI6
aI4
aI7
aI8
aI18
aI8
aI18
aI2
aI23
aI2
aI23
aI3
aI9
aI8
aI19
aI6
aI11
aI6
aI8
aI9
aI8
aI8
aI5
aI8
aI9
aI12
aI15
aI5
aI11
aI5
aI20
aI7
aI13
aI10
aI8
aI6
aI14
aI3
aI21
aI23
aI9
aI5
aI6
aI19
aI16
aI11
aI5
aI26
aI11
aI7
aI4
aI21
aI10
aI3
aI13
aI12
aI6
aI5
aI2
aI22
aI15
aI20
aI5
aI21
aI5
aI14
aI10
aI21
aI9
aI26
aI3
aI23
aI3
aI9
aI3
aI22
aI12
aI9
aI9
aI17
aI8
aI10
aI3
aI15
aI12
aI4
aI17
aI19
aI11
aI5
aI11
aI3
aI6
aI11
aI6
aI2
aI4
aI19
aI4
aI5
aI16
aI5
aI5
aI9
aI6
aI5
aI22
aI15
aI15
aI12
aI23
aI27
aI13
aI7
aI2
aI18
aI31
aI25
aI14
aI5
aI18
aI10
aI4
aI18
aI3
aI13
aI9
aI7
aI7
aI20
aI12
aI15
aI9
aI17
aI5
aI2
aI5
aI5
aI13
aI20
aI19
aI7
aI13
aI8
aI14
aI7
aI2
aI19
aI19
aI5
aI2
aI24
aI11
aI14
aI3
aI14
aI18
aI13
aI3
aI23
aI20
aI6
aI6
aI14
aI10
aI23
aI6
aI10
aI23
aI28
aI12
aI11
aI6
aI13
aI6
aI16
aI10
aI5
aI13
aI19
aI7
aI10
aI18
aI7
aI5
aI19
aI11
aI10
aI14
aI19
aI9
aI4
aI3
aI20
aI22
aI7
aI16
aI15
aI18
aI29
aI9
aI13
aI18
aI13
aI6
aI5
aI4
aI3
aI14
aI9
aI6
aI19
aI5
aI5
aI15
aI7
aI5
aI28
aI7
aI4
aI9
aI16
aI14
aI12
aI22
aI18
aI24
aI10
aI20
aI3
aI14
aI12
aI20
aI4
aI4
aI11
aI16
aI15
aI21
aI19
aI24
aI15
aI7
aI18
aI21
aI9
aI19
aI27
aI11
aI27
aI5
aI2
aI14
aI9
aI19
aI9
aI15
aI9
aI24
aI24
aI11
aI16
aI5
aI3
aI9
aI18
aI23
aI16
aI17
aI11
aI3
aI14
aI25
aI5
aI8
aI8
aI12
aI10
aI12
aI4
aI9
aI9
aI19
aI19
aI22
aI4
aI10
aI27
as.